******************************************************************************
                  TI ARM Linker Unix v15.12.3                  
******************************************************************************
>> Linked Thu Oct 20 14:31:32 2016

OUTPUT FILE NAME:   <sensortag_cc2650stk_stack.out>
ENTRY POINT SYMBOL: "startup_entry"  address: 00011001


MEMORY CONFIGURATION

         name            origin    length      used     unused   attr    fill
----------------------  --------  ---------  --------  --------  ----  --------
  FLASH                 00000000   0001f000  0000d0fb  00011f05  R  X
  SRAM                  20000000   000048e7  00000490  00004457  RW X


SEGMENT ALLOCATION MAP

run origin  load origin   length   init length attrs members
----------  ----------- ---------- ----------- ----- -------
00011000    00011000    0000d0fb   0000d0fb    r-x
  00011000    00011000    0000004c   0000004c    r-x EntrySection
  0001104c    0001104c    0000c5cc   0000c5cc    r-x .text
  0001d618    0001d618    000006f4   000006f4    r-- .const
  0001dd0c    0001dd0c    0000006e   0000006e    r-- .rodata
  0001dd80    0001dd80    0000037b   0000037b    r-- .cinit
20004450    20004450    00000490   00000000    rw-
  20004450    20004450    00000140   00000000    rw- .bss
  20004590    20004590    00000350   00000000    rw- .data


SECTION ALLOCATION MAP

 output                                  attributes/
section   page    origin      length       input sections
--------  ----  ----------  ----------   ----------------
EntrySection 
*          0    00011000    0000004c     
                  00011000    0000002c     icall_startup.obj (EntrySection)
                  0001102c    00000008     rtsv7M3_T_le_eabi.lib : autoinit.obj (.tramp.__TI_auto_init.1)
                  00011034    00000008     <whole-program> (.tramp.CommonROM_Init.1)
                  0001103c    00000008     <whole-program> (.tramp.ROM_Init.1)
                  00011044    00000008     <whole-program> (.tramp.stack_main.1)

.text      0    0001104c    0000c5cc     
                  0001104c    000001ec     host_pxxx.a : att_server.o (.text)
                  00011238    000005b0                 : att_util.o (.text)
                  000117e8    00000340                 : gap_configmgr.o (.text)
                  00011b28    000000b0                 : gap_devmgr.o (.text)
                  00011bd8    00000910                 : gap_linkmgr.o (.text)
                  000124e8    00000680                 : gap_peridevmgr.o (.text)
                  00012b68    00000110                 : gap_perilinkmgr.o (.text)
                  00012c78    00000298                 : gap_task.o (.text)
                  00012f10    0000032c                 : gapgattserver.o (.text)
                  0001323c    00000a5c                 : gatt_server.o (.text)
                  00013c98    000002fc                 : gatt_task.o (.text)
                  00013f94    0000013e                 : gatt_uuid.o (.text)
                  000140d2    00000002     rtsv7M3_T_le_eabi.lib : startup.obj (.text)
                  000140d4    00000fe8     host_pxxx.a : gattservapp.o (.text)
                  000150bc    0000017e                 : l2cap_if.o (.text)
                  0001523a    00000002     --HOLE-- [fill = 0]
                  0001523c    000002b0                 : l2cap_task.o (.text)
                  000154ec    00000684                 : l2cap_util.o (.text)
                  00015b70    000002dc                 : linkdb.o (.text)
                  00015e4c    0000067c                 : sm_mgr.o (.text)
                  000164c8    000007d0                 : sm_pairing.o (.text)
                  00016c98    000000e8                 : sm_task.o (.text)
                  00016d80    00000396                 : smp.o (.text)
                  00017116    00000002     --HOLE-- [fill = 0]
                  00017118    000004e4     cc2640_ctrl_pxxx.a : ble_patch.o (.text)
                  000175fc    000000a8                        : hci_data_patch.o (.text)
                  000176a4    0000052c                        : hci_event_patch.o (.text)
                  00017bd0    00000304                        : hci_patch.o (.text)
                  00017ed4    00000424                        : ll_adv_end_causes_patch.o (.text)
                  000182f8    00000b2a                        : ll_common_patch.o (.text)
                  00018e22    00000002     --HOLE-- [fill = 0]
                  00018e24    0000014c                        : ll_enc_patch.o (.text)
                  00018f70    0000170c                        : ll_patch.o (.text)
                  0001a67c    00000010                        : ll_rat_patch.o (.text)
                  0001a68c    000001a8                        : ll_scheduler_patch.o (.text)
                  0001a834    000006fa                        : ll_slave_end_causes_patch.o (.text)
                  0001af2e    00000002     --HOLE-- [fill = 0]
                  0001af30    00000046                        : ll_sleep.o (.text)
                  0001af76    00000002     --HOLE-- [fill = 0]
                  0001af78    000003ac                        : ll_isr.o (.text)
                  0001b324    000000a8     cc26xx_hci_tl_none.a : hci_tl.o (.text)
                  0001b3cc    00000070     rtsv7M3_T_le_eabi.lib : autoinit.obj (.text)
                  0001b43c    00000018                           : ll_mul_t2.obj (.text)
                  0001b454    0000009c                           : memcpy_t2.obj (.text)
                  0001b4f0    0000007a                           : memset_t2.obj (.text)
                  0001b56a    000001f4                           : ull_div_t2.obj (.text)
                  0001b75e    0000000c     driverlib.lib : cpu.obj (.text:NOROM_CPUcpsie)
                  0001b76a    0000000c                   : cpu.obj (.text:NOROM_CPUcpsid)
                  0001b776    00000002     --HOLE-- [fill = 0]
                  0001b778    00000248     osal_timers.obj (.text)
                  0001b9c0    00000034     hal_assert.obj (.text)
                  0001b9f4    00000024     driverlib.lib : trng.obj (.text:NOROM_TRNGConfigure)
                  0001ba18    00000060     hal_trng_wrapper.obj (.text)
                  0001ba78    00000068     driverlib.lib : interrupt.obj (.text:NOROM_IntDisable)
                  0001bae0    0000005c                   : interrupt.obj (.text:NOROM_IntEnable)
                  0001bb3c    00000068     rom_init.obj (.text)
                  0001bba4    00000012     onboard.obj (.text)
                  0001bbb6    00000002     --HOLE-- [fill = 0]
                  0001bbb8    000000d0     osal_bufmgr.obj (.text)
                  0001bc88    000007a0     osal.obj (.text)
                  0001c428    0000019c     osal_cbtimer.obj (.text)
                  0001c5c4    00000858     ble_dispatch.obj (.text)
                  0001ce1c    0000000e     osal_snv_wrapper.obj (.text)
                  0001ce2a    00000034     gap.obj (.text)
                  0001ce5e    00000002     --HOLE-- [fill = 0]
                  0001ce60    000000a0     osal_pwrmgr.obj (.text)
                  0001cf00    00000044     osal_memory_icall.obj (.text)
                  0001cf44    00000030     common_rom_init.obj (.text)
                  0001cf74    00000060     ble_user_config.obj (.text)
                  0001cfd4    00000110     osal_icall_ble.obj (.text)
                  0001d0e4    00000068     osal_clock.obj (.text)
                  0001d14c    00000014     rtsv7M3_T_le_eabi.lib : strlen.obj (.text)
                  0001d160    0000004c                           : cpy_tbl.obj (.text)
                  0001d1ac    0000006a                           : copy_decompress_rle.obj (.text)
                  0001d216    00000006                           : copy_decompress_rle.obj (.text:decompress:rle24)
                  0001d21c    0000000e                           : copy_decompress_none.obj (.text:decompress:none)
                  0001d22a    00000002     --HOLE-- [fill = 0]
                  0001d22c    00000064     gattservapp_util.obj (.text)
                  0001d290    00000008     ble_rom_patch.symbols (.tramp.HCI_ReadBDADDRCmd.1)
                  0001d298    00000008     ble_rom_patch.symbols (.tramp.HCI_LE_SetRandomAddressCmd.1)
                  0001d2a0    00000008     ble_rom_patch.symbols (.tramp.LL_ReadBDADDR.1)
                  0001d2a8    00000008     ble_rom_patch.symbols (.tramp.HCI_DisconnectCmd.1)
                  0001d2b0    00000008     ble_rom_patch.symbols (.tramp.HCI_LE_SetAdvDataCmd.1)
                  0001d2b8    00000008     ble_rom_patch.symbols (.tramp.HCI_LE_SetScanRspDataCmd.1)
                  0001d2c0    00000008     ble_rom_patch.symbols (.tramp.HCI_LE_SetAdvEnableCmd.1)
                  0001d2c8    00000008     ble_rom_patch.symbols (.tramp.HCI_LE_SetAdvParamCmd.1)
                  0001d2d0    00000008     ble_rom_patch.symbols (.tramp.HCI_SetControllerToHostFlowCtrlCmd.1)
                  0001d2d8    00000008     ble_rom_patch.symbols (.tramp.HCI_HostBufferSizeCmd.1)
                  0001d2e0    00000008     ble_rom_patch.symbols (.tramp.HCI_HostNumCompletedPktCmd.1)
                  0001d2e8    00000008     ble_rom_patch.symbols (.tramp.HCI_SendDataPkt.1)
                  0001d2f0    00000008     ble_rom_patch.symbols (.tramp.HCI_bm_alloc.1)
                  0001d2f8    00000008     ble_rom_patch.symbols (.tramp.LL_Encrypt.1)
                  0001d300    00000008     ble_rom_patch.symbols (.tramp.llMemCopySrc.1)
                  0001d308    00000008     ble_rom_patch.symbols (.tramp.LL_ENC_ReverseBytes.1)
                  0001d310    00000008     ble_rom_patch.symbols (.tramp.LL_ENC_GenDeviceSKD.1)
                  0001d318    00000008     ble_rom_patch.symbols (.tramp.LL_ENC_GenDeviceIV.1)
                  0001d320    00000008     ble_rom_patch.symbols (.tramp.llEnqueueCtrlPkt.1)
                  0001d328    00000008     ble_rom_patch.symbols (.tramp.LL_RX_bm_alloc.1)
                  0001d330    00000008     ble_rom_patch.symbols (.tramp.llPatchCM0.1)
                  0001d338    00000008     ble_rom_patch.symbols (.tramp.RFHAL_AllocRatChan.1)
                  0001d340    00000008     ble_rom_patch.symbols (.tramp.RFHAL_RegisterRatChanCallback.1)
                  0001d348    00000008     ble_rom_patch.symbols (.tramp.LL_CtrlToHostFlowControl.1)
                  0001d350    00000008     ble_rom_patch.symbols (.tramp.HCI_SendCommandCompleteEvent.1)
                  0001d358    00000008     ble_rom_patch.symbols (.tramp.HCI_CommandCompleteEvent.1)
                  0001d360    00000008     ble_rom_patch.symbols (.tramp.HCI_CommandStatusEvent.1)
                  0001d368    00000008     ble_rom_patch.symbols (.tramp.LL_EXT_ResetSystem.1)
                  0001d370    00000008     ble_rom_patch.symbols (.tramp.LL_ReadLocalVersionInfo.1)
                  0001d378    00000008     ble_rom_patch.symbols (.tramp.llFreeTask.1)
                  0001d380    00000008     ble_rom_patch.symbols (.tramp.LL_ENC_GeneratePseudoRandNum.1)
                  0001d388    00000008     ble_rom_patch.symbols (.tramp.llScheduler.1)
                  0001d390    00000008     ble_rom_patch.symbols (.tramp.llConvertLstoToEvent.1)
                  0001d398    00000008     ble_rom_patch.symbols (.tramp.llConvertCtrlProcTimeoutToEvent.1)
                  0001d3a0    00000008     ble_rom_patch.symbols (.tramp.llCalcScaFactor.1)
                  0001d3a8    00000008     ble_rom_patch.symbols (.tramp.llConnTerminate.1)
                  0001d3b0    00000008     ble_rom_patch.symbols (.tramp.RFHAL_InitDataQueue.1)
                  0001d3b8    00000008     ble_rom_patch.symbols (.tramp.llEventDelta.1)
                  0001d3c0    00000008     ble_rom_patch.symbols (.tramp.LL_TX_bm_alloc.1)
                  0001d3c8    00000008     ble_rom_patch.symbols (.tramp.RFHAL_FreeNextTxDataEntry.1)
                  0001d3d0    00000008     ble_rom_patch.symbols (.tramp.RFHAL_GetNextDataEntry.1)
                  0001d3d8    00000008     ble_rom_patch.symbols (.tramp.RFHAL_GetTempDataEntry.1)
                  0001d3e0    00000008     ble_rom_patch.symbols (.tramp.llReleaseConnId.1)
                  0001d3e8    00000008     ble_rom_patch.symbols (.tramp.llTimeCompare.1)
                  0001d3f0    00000008     ble_rom_patch.symbols (.tramp.HCI_HardwareErrorEvent.1)
                  0001d3f8    00000008     ble_rom_patch.symbols (.tramp.llGetCurrentTask.1)
                  0001d400    00000008     ble_rom_patch.symbols (.tramp.llTimeDelta.1)
                  0001d408    00000008     ble_rom_patch.symbols (.tramp.llSetupRejectInd.1)
                  0001d410    00000008     ble_rom_patch.symbols (.tramp.LL_ENC_Init.1)
                  0001d418    00000008     ble_rom_patch.symbols (.tramp.LL_ENC_LoadKey.1)
                  0001d420    00000008     ble_rom_patch.symbols (.tramp.LL_ENC_GenerateNonce.1)
                  0001d428    00000008     ble_rom_patch.symbols (.tramp.LL_ENC_EncryptMsg.1)
                  0001d430    00000008     ble_rom_patch.symbols (.tramp.LL_ENC_DecryptMsg.1)
                  0001d438    00000008     ble_rom_patch.symbols (.tramp.LL_ENC_GenerateTrueRandNum.1)
                  0001d440    00000008     ble_rom_patch.symbols (.tramp.WL_Init.1)
                  0001d448    00000008     ble_rom_patch.symbols (.tramp.LL_ClearWhiteList.1)
                  0001d450    00000008     ble_rom_patch.symbols (.tramp.llReleaseAllConnId.1)
                  0001d458    00000008     ble_rom_patch.symbols (.tramp.LL_ConnActive.1)
                  0001d460    00000008     ble_rom_patch.symbols (.tramp.HCI_DataBufferOverflowEvent.1)
                  0001d468    00000008     ble_rom_patch.symbols (.tramp.LL_DirectTestEndDoneCback.1)
                  0001d470    00000008     ble_rom_patch.symbols (.tramp.llGetActiveTasks.1)
                  0001d478    00000008     ble_rom_patch.symbols (.tramp.llSetupAdv.1)
                  0001d480    00000008     ble_rom_patch.symbols (.tramp.llGetNumTasks.1)
                  0001d488    00000008     ble_rom_patch.symbols (.tramp.llCheckForLstoDuringSL.1)
                  0001d490    00000008     ble_rom_patch.symbols (.tramp.llEventInRange.1)
                  0001d498    00000008     ble_rom_patch.symbols (.tramp.llSetupUnknownRsp.1)
                  0001d4a0    00000008     ble_rom_patch.symbols (.tramp.LL_EncLtkReqCback.1)
                  0001d4a8    00000008     ble_rom_patch.symbols (.tramp.llSetupEncRsp.1)
                  0001d4b0    00000008     ble_rom_patch.symbols (.tramp.llSetupStartEncReq.1)
                  0001d4b8    00000008     ble_rom_patch.symbols (.tramp.LL_ENC_AES128_Encrypt.1)
                  0001d4c0    00000008     ble_rom_patch.symbols (.tramp.LL_EncKeyRefreshCback.1)
                  0001d4c8    00000008     ble_rom_patch.symbols (.tramp.LL_EncChangeCback.1)
                  0001d4d0    00000008     ble_rom_patch.symbols (.tramp.llSetupStartEncRsp.1)
                  0001d4d8    00000008     ble_rom_patch.symbols (.tramp.llSetupPauseEncRsp.1)
                  0001d4e0    00000008     ble_rom_patch.symbols (.tramp.LL_ReadRemoteVersionInfoCback.1)
                  0001d4e8    00000008     ble_rom_patch.symbols (.tramp.llSetupVersionIndReq.1)
                  0001d4f0    00000008     ble_rom_patch.symbols (.tramp.llMoveTempTxDataEntries.1)
                  0001d4f8    00000008     ble_rom_patch.symbols (.tramp.RFHAL_NextDataEntryDone.1)
                  0001d500    00000008     ble_rom_patch.symbols (.tramp.LL_PseudoRand.1)
                  0001d508    00000008     ble_rom_patch.symbols (.tramp.HCI_EXT_NumComplPktsLimitCmd.1)
                  0001d510    00000008     ble_rom_patch.symbols (.tramp.HCI_EXT_BuildRevisionCmd.1)
                  0001d518    00000008     ble_rom_patch.symbols (.tramp.HCI_EXT_SetSlaveLatencyOverrideCmd.1)
                  0001d520    00000008     ble_rom_patch.symbols (.tramp.HCI_EXT_AdvEventNoticeCmd.1)
                  0001d528    00000008     ble_rom_patch.symbols (.tramp.HCI_EXT_PERbyChanCmd.1)
                  0001d530    00000008     ble_rom_patch.symbols (.tramp.HCI_EXT_PacketErrorRateCmd.1)
                  0001d538    00000008     ble_rom_patch.symbols (.tramp.HCI_EXT_DisconnectImmedCmd.1)
                  0001d540    00000008     ble_rom_patch.symbols (.tramp.HCI_EXT_SetMaxDtmTxPowerCmd.1)
                  0001d548    00000008     ble_rom_patch.symbols (.tramp.HCI_EXT_EnablePTMCmd.1)
                  0001d550    00000008     ble_rom_patch.symbols (.tramp.HCI_EXT_SetSCACmd.1)
                  0001d558    00000008     ble_rom_patch.symbols (.tramp.HCI_EXT_SetBDADDRCmd.1)
                  0001d560    00000008     ble_rom_patch.symbols (.tramp.HCI_EXT_EndModemTestCmd.1)
                  0001d568    00000008     ble_rom_patch.symbols (.tramp.HCI_EXT_ModemTestRxCmd.1)
                  0001d570    00000008     ble_rom_patch.symbols (.tramp.HCI_EXT_ModemHopTestTxCmd.1)
                  0001d578    00000008     ble_rom_patch.symbols (.tramp.HCI_EXT_ModemTestTxCmd.1)
                  0001d580    00000008     ble_rom_patch.symbols (.tramp.HCI_EXT_SetFastTxResponseTimeCmd.1)
                  0001d588    00000008     ble_rom_patch.symbols (.tramp.HCI_EXT_SetLocalSupportedFeaturesCmd.1)
                  0001d590    00000008     ble_rom_patch.symbols (.tramp.HCI_EXT_DecryptCmd.1)
                  0001d598    00000008     ble_rom_patch.symbols (.tramp.HCI_EXT_OnePktPerEvtCmd.1)
                  0001d5a0    00000008     ble_rom_patch.symbols (.tramp.HCI_EXT_SetTxPowerCmd.1)
                  0001d5a8    00000008     ble_rom_patch.symbols (.tramp.HCI_LE_TestEndCmd.1)
                  0001d5b0    00000008     ble_rom_patch.symbols (.tramp.HCI_LE_ReadSupportedStatesCmd.1)
                  0001d5b8    00000008     ble_rom_patch.symbols (.tramp.HCI_LE_EncryptCmd.1)
                  0001d5c0    00000008     ble_rom_patch.symbols (.tramp.HCI_LE_ReadChannelMapCmd.1)
                  0001d5c8    00000008     ble_rom_patch.symbols (.tramp.HCI_LE_RemoveWhiteListCmd.1)
                  0001d5d0    00000008     ble_rom_patch.symbols (.tramp.HCI_LE_AddWhiteListCmd.1)
                  0001d5d8    00000008     ble_rom_patch.symbols (.tramp.HCI_LE_ClearWhiteListCmd.1)
                  0001d5e0    00000008     ble_rom_patch.symbols (.tramp.HCI_LE_ReadWhiteListSizeCmd.1)
                  0001d5e8    00000008     ble_rom_patch.symbols (.tramp.HCI_LE_ReadAdvChanTxPowerCmd.1)
                  0001d5f0    00000008     ble_rom_patch.symbols (.tramp.HCI_LE_ReadLocalSupportedFeaturesCmd.1)
                  0001d5f8    00000008     ble_rom_patch.symbols (.tramp.HCI_ReadLocalSupportedFeaturesCmd.1)
                  0001d600    00000008     ble_rom_patch.symbols (.tramp.HCI_ReadTransmitPowerLevelCmd.1)
                  0001d608    00000008     ble_rom_patch.symbols (.tramp.HCI_SetEventMaskCmd.1)
                  0001d610    00000008     ble_rom_patch.symbols (.tramp.HCI_ReadRemoteVersionInfoCmd.1)

.const     0    0001d618    000006f4     
                  0001d618    00000024     osal_icall_ble.obj (.const:tasksArr)
                  0001d63c    0000010c     common_rom_init.obj (.const:$O2$$)
                  0001d748    000005c4     rom_init.obj (.const:$O4$$)

.constdata 
*          0    0001dd0c    00000000     UNINITIALIZED

.rodata    0    0001dd0c    0000006e     
                  0001dd0c    00000008     host_pxxx.a : gapgattserver.o (.rodata)
                  0001dd14    00000008                 : gattservapp.o (.rodata)
                  0001dd1c    0000005c     cc2640_ctrl_pxxx.a : ll_config.o (.rodata)
                  0001dd78    00000002                        : ll_patch.o (.rodata)

.cinit     0    0001dd80    0000037b     
                  0001dd80    00000008     (__TI_handler_table)
                  0001dd88    00000010     (__TI_cinit_table)
                  0001dd98    00000358     (.cinit..data.load) [load image]
                  0001e0f0    0000000b     (.cinit..bss.load) [load image, compression = rle]

.pinit     0    0001e0fb    00000000     UNINITIALIZED

.init_array 
*          0    0001e0fb    00000000     UNINITIALIZED

.emb_text 
*          0    0001e0fb    00000000     UNINITIALIZED

.bss       0    20004450    00000140     UNINITIALIZED
                  20004450    00000004     host_pxxx.a : att_server.o (.bss)
                  20004454    00000004                 : gap_devmgr.o (.bss)
                  20004458    00000004                 : gap_devmgr.o (.bss)
                  2000445c    00000001                 : gap_devmgr.o (.bss)
                  2000445d    00000001                 : l2cap_if.o (.bss)
                  2000445e    00000002                 : gap_peridevmgr.o (.bss)
                  20004460    00000004                 : gap_linkmgr.o (.bss)
                  20004464    00000004                 : gap_task.o (.bss)
                  20004468    00000004                 : gapgattserver.o (.bss)
                  2000446c    00000004                 : gatt_server.o (.bss)
                  20004470    00000002                 : gatt_task.o (.bss)
                  20004472    00000001                 : l2cap_util.o (.bss)
                  20004473    00000001                 : sm_task.o (.bss)
                  20004474    00000008                 : gatt_task.o (.bss)
                  2000447c    00000024                 : gattservapp.o (.bss)
                  200044a0    00000004                 : gattservapp.o (.bss)
                  200044a4    00000030                 : l2cap_task.o (.bss)
                  200044d4    00000038                 : linkdb.o (.bss)
                  2000450c    0000000c                 : sm_pairing.o (.bss)
                  20004518    00000010     cc2640_ctrl_pxxx.a : hci_event_patch.o (.bss)
                  20004528    00000008                        : ll_patch.o (.bss)
                  20004530    00000002                        : ll_slave_end_causes_patch.o (.bss)
                  20004532    00000001     cc26xx_hci_tl_none.a : hci_tl.o (.bss)
                  20004533    00000001                          : hci_tl.o (.bss)
                  20004534    00000001                          : hci_tl.o (.bss)
                  20004535    00000001                          : hci_tl.o (.bss)
                  20004536    00000001                          : hci_tl.o (.bss)
                  20004537    00000001                          : hci_tl.o (.bss)
                  20004538    00000004     hal_trng_wrapper.obj (.bss)
                  2000453c    0000000c     icall_startup.obj (.bss:$O3$$)
                  20004548    00000008     osal_timers.obj (.bss:$O10$$)
                  20004550    0000003c     ble_dispatch.obj (.bss:$O11$$)
                  2000458c    00000004     (.common:tasksEvents)

.data      0    20004590    00000350     UNINITIALIZED
                  20004590    0000002c     host_pxxx.a : gap_configmgr.o (.data)
                  200045bc    00000050                 : gap_configmgr.o (.data)
                  2000460c    0000001c                 : gap_linkmgr.o (.data)
                  20004628    0000001c                 : gap_peridevmgr.o (.data)
                  20004644    00000004                 : gap_perilinkmgr.o (.data)
                  20004648    0000000c                 : gap_task.o (.data)
                  20004654    00000001                 : gapgattserver.o (.data)
                  20004655    00000001                 : gapgattserver.o (.data)
                  20004656    00000001                 : gapgattserver.o (.data)
                  20004657    00000001                 : gatt_server.o (.data)
                  20004658    00000024                 : gapgattserver.o (.data)
                  2000467c    00000070                 : gapgattserver.o (.data)
                  200046ec    00000008                 : gatt_server.o (.data)
                  200046f4    00000001                 : gatt_task.o (.data)
                  200046f5    00000001                 : gattservapp.o (.data)
                  200046f6    00000002                 : l2cap_task.o (.data)
                  200046f8    00000010                 : gattservapp.o (.data)
                  20004708    00000008                 : l2cap_task.o (.data)
                  20004710    0000000c     cc2640_ctrl_pxxx.a : ll_common_patch.o (.data)
                  2000471c    00000018                        : ll_config.o (.data)
                  20004734    00000004     osal_bufmgr.obj (.data)
                  20004738    000000e8     cc2640_ctrl_pxxx.a : ll_patch.o (.data)
                  20004820    00000030     osal.obj (.data:$O6$$)
                  20004850    0000007c     osal_cbtimer.obj (.data:$O7$$)
                  200048cc    00000008     osal_clock.obj (.data:$O8$$)
                  200048d4    00000004     osal_pwrmgr.obj (.data:$O9$$)
                  200048d8    00000008     hal_assert.obj (.data:$O13$$)

MODULE SUMMARY

       Module                        code    ro data   rw data
       ------                        ----    -------   -------
    ./HAL/Common/
       hal_assert.obj                52      0         8      
    +--+-----------------------------+-------+---------+---------+
       Total:                        52      0         8      
                                                              
    ./HAL/Target/CC2650/Drivers/
       hal_trng_wrapper.obj          96      0         4      
    +--+-----------------------------+-------+---------+---------+
       Total:                        96      0         4      
                                                              
    ./ICallBLE/
       ble_dispatch.obj              2136    0         60     
    +--+-----------------------------+-------+---------+---------+
       Total:                        2136    0         60     
                                                              
    ./OSAL/
       osal.obj                      1952    0         48     
       osal_timers.obj               584     0         8      
       osal_cbtimer.obj              412     0         124    
       osal_bufmgr.obj               208     0         4      
       osal_pwrmgr.obj               160     0         4      
       osal_clock.obj                104     0         8      
       osal_memory_icall.obj         68      0         0      
       osal_snv_wrapper.obj          14      0         0      
    +--+-----------------------------+-------+---------+---------+
       Total:                        3502    0         196    
                                                              
    ./PROFILES/
       gattservapp_util.obj          100     0         0      
       gap.obj                       52      0         0      
    +--+-----------------------------+-------+---------+---------+
       Total:                        152     0         0      
                                                              
    ./Startup/
       rom_init.obj                  104     1476      0      
       common_rom_init.obj           48      268       0      
       osal_icall_ble.obj            272     36        0      
       ble_user_config.obj           96      0         0      
       icall_startup.obj             44      0         12     
    +--+-----------------------------+-------+---------+---------+
       Total:                        564     1780      12     
                                                              
    ./TOOLS/
       onboard.obj                   18      0         0      
    +--+-----------------------------+-------+---------+---------+
       Total:                        18      0         0      
                                                              
    /home/remi/.wine_installs/win64/drive_c/ti/simplelink/ble_sdk_2_02_00_31/src/rom/ble_rom_releases/04242014/
       ble_rom_patch.symbols         904     0         0      
    +--+-----------------------------+-------+---------+---------+
       Total:                        904     0         0      
                                                              
    /tmp/
       07269xlNfac                   24      0         4      
    +--+-----------------------------+-------+---------+---------+
       Total:                        24      0         4      
                                                              
    /home/data/remi/dev_tools/Embedded/TI/ccsv6_install/ccsv6/tools/compiler/arm_15.12.3.LTS/lib/rtsv7M3_T_le_eabi.lib
       ull_div_t2.obj                500     0         0      
       memcpy_t2.obj                 156     0         0      
       memset_t2.obj                 122     0         0      
       autoinit.obj                  120     0         0      
       copy_decompress_rle.obj       112     0         0      
       cpy_tbl.obj                   76      0         0      
       ll_mul_t2.obj                 24      0         0      
       strlen.obj                    20      0         0      
       copy_decompress_none.obj      14      0         0      
       startup.obj                   2       0         0      
    +--+-----------------------------+-------+---------+---------+
       Total:                        1146    0         0      
                                                              
    /home/remi/.wine_installs/win64/drive_c/ti/simplelink/ble_sdk_2_02_00_31/blelib/ctrl/cc2640/cc2640_ctrl_pxxx.a
       ll_patch.o                    5900    2         240    
       ll_common_patch.o             2858    0         12     
       ll_slave_end_causes_patch.o   1786    0         2      
       hci_event_patch.o             1324    0         16     
       ble_patch.o                   1252    0         0      
       ll_adv_end_causes_patch.o     1060    0         0      
       ll_isr.o                      940     0         0      
       hci_patch.o                   772     0         0      
       ll_scheduler_patch.o          424     0         0      
       ll_enc_patch.o                332     0         0      
       hci_data_patch.o              168     0         0      
       ll_config.o                   0       92        24     
       ll_sleep.o                    70      0         0      
       ll_rat_patch.o                16      0         0      
    +--+-----------------------------+-------+---------+---------+
       Total:                        16902   94        294    
                                                              
    /home/remi/.wine_installs/win64/drive_c/ti/simplelink/ble_sdk_2_02_00_31/blelib/hci_tl/cc26xx/cc26xx_hci_tl_none.a
       hci_tl.o                      168     0         6      
    +--+-----------------------------+-------+---------+---------+
       Total:                        168     0         6      
                                                              
    /home/remi/.wine_installs/win64/drive_c/ti/simplelink/ble_sdk_2_02_00_31/blelib/host/host_pxxx.a
       gattservapp.o                 4072    8         57     
       gatt_server.o                 2652    0         13     
       gap_linkmgr.o                 2320    0         32     
       sm_pairing.o                  2000    0         12     
       gap_peridevmgr.o              1664    0         30     
       l2cap_util.o                  1668    0         1      
       sm_mgr.o                      1660    0         0      
       att_util.o                    1456    0         0      
       gapgattserver.o               812     8         155    
       gap_configmgr.o               832     0         124    
       smp.o                         918     0         0      
       linkdb.o                      732     0         56     
       gatt_task.o                   764     0         11     
       l2cap_task.o                  688     0         58     
       gap_task.o                    664     0         16     
       att_server.o                  492     0         4      
       l2cap_if.o                    382     0         1      
       gatt_uuid.o                   318     0         0      
       gap_perilinkmgr.o             272     0         4      
       sm_task.o                     232     0         1      
       gap_devmgr.o                  176     0         9      
    +--+-----------------------------+-------+---------+---------+
       Total:                        24774   16        584    
                                                              
    /home/remi/.wine_installs/win64/drive_c/ti/tirtos_cc13xx_cc26xx_2_18_00_03/products/cc26xxware_2_23_03_17162/driverlib/bin/ccs/driverlib.lib
       interrupt.obj                 196     0         0      
       trng.obj                      36      0         0      
       cpu.obj                       24      0         0      
    +--+-----------------------------+-------+---------+---------+
       Total:                        256     0         0      
                                                              
       Linker Generated:             0       891       0      
    +--+-----------------------------+-------+---------+---------+
       Grand Total:                  50694   2781      1168   


LINKER GENERATED COPY TABLES

__TI_cinit_table @ 0001dd88 records: 2, size/record: 8, table size: 16
	.data: load addr=0001dd98, load size=00000358 bytes, run addr=20004590, run size=00000350 bytes, compression=copy
	.bss: load addr=0001e0f0, load size=0000000b bytes, run addr=20004450, run size=00000140 bytes, compression=rle


LINKER GENERATED HANDLER TABLE

__TI_handler_table @ 0001dd80 records: 2, size/record: 4, table size: 8
	index: 0, handler: __TI_decompress_rle24
	index: 1, handler: __TI_decompress_none


FAR CALL TRAMPOLINES

callee name               trampoline name
   callee addr  tramp addr   call addr  call info
--------------  -----------  ---------  ----------------
__TI_auto_init            $Tramp$TT$S$$__TI_auto_init
   0001b3cd     0001102c     00011006   icall_startup.obj (EntrySection)
CommonROM_Init            $Tramp$TT$S$$CommonROM_Init
   0001cf45     00011034     00011018   icall_startup.obj (EntrySection)
ROM_Init                  $Tramp$TT$S$$ROM_Init
   0001bb73     0001103c     0001101c   icall_startup.obj (EntrySection)
stack_main                $Tramp$TT$S$$stack_main
   0001d09b     00011044     00011022   icall_startup.obj (EntrySection)
HCI_ReadBDADDRCmd         $Tramp$TT$L$PI$$HCI_ReadBDADDRCmd
   10009765     0001d290     00011828   host_pxxx.a : gap_configmgr.o (.text)
                             0001ccd4   ble_dispatch.obj (.text)
HCI_LE_SetRandomAddressCmd  $Tramp$TT$L$PI$$HCI_LE_SetRandomAddressCmd
   10009849     0001d298     000119f0   host_pxxx.a : gap_configmgr.o (.text)
LL_ReadBDADDR             $Tramp$TT$L$PI$$LL_ReadBDADDR
   100056c9     0001d2a0     00011ac0   host_pxxx.a : gap_configmgr.o (.text)
HCI_DisconnectCmd         $Tramp$TT$L$PI$$HCI_DisconnectCmd
   10009525     0001d2a8     00011c42   host_pxxx.a : gap_linkmgr.o (.text)
                             00012146               : gap_linkmgr.o (.text)
HCI_LE_SetAdvDataCmd      $Tramp$TT$L$PI$$HCI_LE_SetAdvDataCmd
   100098a1     0001d2b0     000125dc   host_pxxx.a : gap_peridevmgr.o (.text)
                             00012ab6               : gap_peridevmgr.o (.text)
HCI_LE_SetScanRspDataCmd  $Tramp$TT$L$PI$$HCI_LE_SetScanRspDataCmd
   100098bd     0001d2b8     000125e6   host_pxxx.a : gap_peridevmgr.o (.text)
                             00012ac0               : gap_peridevmgr.o (.text)
HCI_LE_SetAdvEnableCmd    $Tramp$TT$L$PI$$HCI_LE_SetAdvEnableCmd
   100098d9     0001d2c0     00012636   host_pxxx.a : gap_peridevmgr.o (.text)
                             00012822               : gap_peridevmgr.o (.text)
HCI_LE_SetAdvParamCmd     $Tramp$TT$L$PI$$HCI_LE_SetAdvParamCmd
   1000986d     0001d2c8     00012806   host_pxxx.a : gap_peridevmgr.o (.text)
HCI_SetControllerToHostFlowCtrlCmd  $Tramp$TT$L$PI$$HCI_SetControllerToHostFlowCtrlCmd
   100095f5     0001d2d0     000151cc   host_pxxx.a : l2cap_if.o (.text)
                             000151ec               : l2cap_if.o (.text)
HCI_HostBufferSizeCmd     $Tramp$TT$L$PI$$HCI_HostBufferSizeCmd
   10009631     0001d2d8     000151e2   host_pxxx.a : l2cap_if.o (.text)
HCI_HostNumCompletedPktCmd  $Tramp$TT$L$PI$$HCI_HostNumCompletedPktCmd
   1000965d     0001d2e0     00015200   host_pxxx.a : l2cap_if.o (.text)
HCI_SendDataPkt           $Tramp$TT$L$PI$$HCI_SendDataPkt
   100094e9     0001d2e8     000156dc   host_pxxx.a : l2cap_util.o (.text)
HCI_bm_alloc              $Tramp$TT$L$PI$$HCI_bm_alloc
   100094a1     0001d2f0     00015b56   host_pxxx.a : l2cap_util.o (.text)
                             000187a8   cc2640_ctrl_pxxx.a : ll_common_patch.o (.text)
LL_Encrypt                $Tramp$TT$L$PI$$LL_Encrypt
   100057d5     0001d2f8     00016162   host_pxxx.a : sm_mgr.o (.text)
llMemCopySrc              $Tramp$TT$L$PI$$llMemCopySrc
   100089d9     0001d300     00017180   cc2640_ctrl_pxxx.a : ble_patch.o (.text)
                             0001718c                      : ble_patch.o (.text)
                             00017198                      : ble_patch.o (.text)
                             000171a4                      : ble_patch.o (.text)
                             000171c8                      : ble_patch.o (.text)
                             00017204                      : ble_patch.o (.text)
                             00017210                      : ble_patch.o (.text)
                             00017260                      : ble_patch.o (.text)
                             0001726c                      : ble_patch.o (.text)
                             0001727a                      : ble_patch.o (.text)
                             00017292                      : ble_patch.o (.text)
                             00017356                      : ble_patch.o (.text)
                             00017362                      : ble_patch.o (.text)
LL_ENC_ReverseBytes       $Tramp$TT$L$PI$$LL_ENC_ReverseBytes
   1000b4ed     0001d308     00017284   cc2640_ctrl_pxxx.a : ble_patch.o (.text)
                             0001729a                      : ble_patch.o (.text)
LL_ENC_GenDeviceSKD       $Tramp$TT$L$PI$$LL_ENC_GenDeviceSKD
   1000b541     0001d310     000172a2   cc2640_ctrl_pxxx.a : ble_patch.o (.text)
LL_ENC_GenDeviceIV        $Tramp$TT$L$PI$$LL_ENC_GenDeviceIV
   1000b555     0001d318     000172aa   cc2640_ctrl_pxxx.a : ble_patch.o (.text)
llEnqueueCtrlPkt          $Tramp$TT$L$PI$$llEnqueueCtrlPkt
   100080bd     0001d320     000172e0   cc2640_ctrl_pxxx.a : ble_patch.o (.text)
                             00017388                      : ble_patch.o (.text)
                             00019c22                      : ll_patch.o (.text)
LL_RX_bm_alloc            $Tramp$TT$L$PI$$LL_RX_bm_alloc
   1000556d     0001d328     00017402   cc2640_ctrl_pxxx.a : ble_patch.o (.text)
                             00017444                      : ble_patch.o (.text)
                             0001889a                      : ll_common_patch.o (.text)
llPatchCM0                $Tramp$TT$L$PI$$llPatchCM0
   1000adb1     0001d330     000174bc   cc2640_ctrl_pxxx.a : ble_patch.o (.text)
RFHAL_AllocRatChan        $Tramp$TT$L$PI$$RFHAL_AllocRatChan
   10018315     0001d338     000174c0   cc2640_ctrl_pxxx.a : ble_patch.o (.text)
RFHAL_RegisterRatChanCallback  $Tramp$TT$L$PI$$RFHAL_RegisterRatChanCallback
   10018391     0001d340     000174cc   cc2640_ctrl_pxxx.a : ble_patch.o (.text)
LL_CtrlToHostFlowControl  $Tramp$TT$L$PI$$LL_CtrlToHostFlowControl
   100058d5     0001d348     0001761e   cc2640_ctrl_pxxx.a : hci_data_patch.o (.text)
HCI_SendCommandCompleteEvent  $Tramp$TT$L$PI$$HCI_SendCommandCompleteEvent
   10008c81     0001d350     00017ba4   cc2640_ctrl_pxxx.a : hci_event_patch.o (.text)
HCI_CommandCompleteEvent  $Tramp$TT$L$PI$$HCI_CommandCompleteEvent
   10008add     0001d358     00017c3a   cc2640_ctrl_pxxx.a : hci_patch.o (.text)
                             00017cf6                      : hci_patch.o (.text)
                             00017d24                      : hci_patch.o (.text)
                             00017e5a                      : hci_patch.o (.text)
                             00017e88                      : hci_patch.o (.text)
HCI_CommandStatusEvent    $Tramp$TT$L$PI$$HCI_CommandStatusEvent
   10008ba1     0001d360     00017d0e   cc2640_ctrl_pxxx.a : hci_patch.o (.text)
                             00017d80                      : hci_patch.o (.text)
LL_EXT_ResetSystem        $Tramp$TT$L$PI$$LL_EXT_ResetSystem
   100070d5     0001d368     00017d98   cc2640_ctrl_pxxx.a : hci_patch.o (.text)
LL_ReadLocalVersionInfo   $Tramp$TT$L$PI$$LL_ReadLocalVersionInfo
   1000589d     0001d370     00017e18   cc2640_ctrl_pxxx.a : hci_patch.o (.text)
llFreeTask                $Tramp$TT$L$PI$$llFreeTask
   1000abed     0001d378     00017ef4   cc2640_ctrl_pxxx.a : ll_adv_end_causes_patch.o (.text)
                             0001800e                      : ll_adv_end_causes_patch.o (.text)
                             0001863e                      : ll_common_patch.o (.text)
                             0001a494                      : ll_patch.o (.text)
LL_ENC_GeneratePseudoRandNum  $Tramp$TT$L$PI$$LL_ENC_GeneratePseudoRandNum
   1000b50d     0001d380     00017f08   cc2640_ctrl_pxxx.a : ll_adv_end_causes_patch.o (.text)
                             00017f9e                      : ll_adv_end_causes_patch.o (.text)
llScheduler               $Tramp$TT$L$PI$$llScheduler
   1000a335     0001d388     00017f32   cc2640_ctrl_pxxx.a : ll_adv_end_causes_patch.o (.text)
                             00017fd8                      : ll_adv_end_causes_patch.o (.text)
                             000182b4                      : ll_adv_end_causes_patch.o (.text)
                             0001a45c                      : ll_patch.o (.text)
                             0001a4a0                      : ll_patch.o (.text)
                             0001a9f0                      : ll_slave_end_causes_patch.o (.text)
llConvertLstoToEvent      $Tramp$TT$L$PI$$llConvertLstoToEvent
   10008721     0001d390     00018122   cc2640_ctrl_pxxx.a : ll_adv_end_causes_patch.o (.text)
                             0001aae0                      : ll_slave_end_causes_patch.o (.text)
llConvertCtrlProcTimeoutToEvent  $Tramp$TT$L$PI$$llConvertCtrlProcTimeoutToEvent
   10008741     0001d398     0001812c   cc2640_ctrl_pxxx.a : ll_adv_end_causes_patch.o (.text)
                             0001ab3e                      : ll_slave_end_causes_patch.o (.text)
llCalcScaFactor           $Tramp$TT$L$PI$$llCalcScaFactor
   1000d94d     0001d3a0     00018146   cc2640_ctrl_pxxx.a : ll_adv_end_causes_patch.o (.text)
llConnTerminate           $Tramp$TT$L$PI$$llConnTerminate
   10008631     0001d3a8     000181f4   cc2640_ctrl_pxxx.a : ll_adv_end_causes_patch.o (.text)
                             0001a5ec                      : ll_patch.o (.text)
                             0001a984                      : ll_slave_end_causes_patch.o (.text)
                             0001ac6a                      : ll_slave_end_causes_patch.o (.text)
                             0001ad2c                      : ll_slave_end_causes_patch.o (.text)
RFHAL_InitDataQueue       $Tramp$TT$L$PI$$RFHAL_InitDataQueue
   100183b9     0001d3b0     00018208   cc2640_ctrl_pxxx.a : ll_adv_end_causes_patch.o (.text)
                             000185ec                      : ll_common_patch.o (.text)
                             0001861c                      : ll_common_patch.o (.text)
llEventDelta              $Tramp$TT$L$PI$$llEventDelta
   10008719     0001d3b8     00018362   cc2640_ctrl_pxxx.a : ll_common_patch.o (.text)
                             00018b70                      : ll_common_patch.o (.text)
                             0001aaae                      : ll_slave_end_causes_patch.o (.text)
                             0001aafa                      : ll_slave_end_causes_patch.o (.text)
LL_TX_bm_alloc            $Tramp$TT$L$PI$$LL_TX_bm_alloc
   10005549     0001d3c0     000184ce   cc2640_ctrl_pxxx.a : ll_common_patch.o (.text)
                             00018bce                      : ll_common_patch.o (.text)
RFHAL_FreeNextTxDataEntry  $Tramp$TT$L$PI$$RFHAL_FreeNextTxDataEntry
   10018485     0001d3c8     00018550   cc2640_ctrl_pxxx.a : ll_common_patch.o (.text)
                             000185ba                      : ll_common_patch.o (.text)
RFHAL_GetNextDataEntry    $Tramp$TT$L$PI$$RFHAL_GetNextDataEntry
   100184cd     0001d3d0     00018556   cc2640_ctrl_pxxx.a : ll_common_patch.o (.text)
                             000185c0                      : ll_common_patch.o (.text)
                             00018600                      : ll_common_patch.o (.text)
                             0001b1c8                      : ll_isr.o (.text)
RFHAL_GetTempDataEntry    $Tramp$TT$L$PI$$RFHAL_GetTempDataEntry
   100184d1     0001d3d8     000185ca   cc2640_ctrl_pxxx.a : ll_common_patch.o (.text)
                             00018c98                      : ll_common_patch.o (.text)
llReleaseConnId           $Tramp$TT$L$PI$$llReleaseConnId
   10008429     0001d3e0     00018638   cc2640_ctrl_pxxx.a : ll_common_patch.o (.text)
llTimeCompare             $Tramp$TT$L$PI$$llTimeCompare
   1000d8c9     0001d3e8     000186ea   cc2640_ctrl_pxxx.a : ll_common_patch.o (.text)
                             0001894e                      : ll_common_patch.o (.text)
HCI_HardwareErrorEvent    $Tramp$TT$L$PI$$HCI_HardwareErrorEvent
   10008bf5     0001d3f0     000187cc   cc2640_ctrl_pxxx.a : ll_common_patch.o (.text)
                             000188d6                      : ll_common_patch.o (.text)
                             00018a30                      : ll_common_patch.o (.text)
                             00018da4                      : ll_common_patch.o (.text)
                             00018e1e                      : ll_common_patch.o (.text)
                             0001997a                      : ll_patch.o (.text)
                             00019d32                      : ll_patch.o (.text)
llGetCurrentTask          $Tramp$TT$L$PI$$llGetCurrentTask
   1000ac3d     0001d3f8     00018954   cc2640_ctrl_pxxx.a : ll_common_patch.o (.text)
                             000198a8                      : ll_patch.o (.text)
                             0001a47a                      : ll_patch.o (.text)
                             0001a5c6                      : ll_patch.o (.text)
                             0001a5d0                      : ll_patch.o (.text)
llTimeDelta               $Tramp$TT$L$PI$$llTimeDelta
   1000d8f5     0001d400     00018966   cc2640_ctrl_pxxx.a : ll_common_patch.o (.text)
llSetupRejectInd          $Tramp$TT$L$PI$$llSetupRejectInd
   10007df5     0001d408     00018bb0   cc2640_ctrl_pxxx.a : ll_common_patch.o (.text)
                             0001ae72                      : ll_slave_end_causes_patch.o (.text)
LL_ENC_Init               $Tramp$TT$L$PI$$LL_ENC_Init
   1000b4c9     0001d410     00018e66   cc2640_ctrl_pxxx.a : ll_enc_patch.o (.text)
                             00018ed4                      : ll_enc_patch.o (.text)
                             00019a0c                      : ll_patch.o (.text)
                             0001af44                      : ll_sleep.o (.text)
LL_ENC_LoadKey            $Tramp$TT$L$PI$$LL_ENC_LoadKey
   1000b58d     0001d418     00018e6e   cc2640_ctrl_pxxx.a : ll_enc_patch.o (.text)
                             00018edc                      : ll_enc_patch.o (.text)
LL_ENC_GenerateNonce      $Tramp$TT$L$PI$$LL_ENC_GenerateNonce
   1000b569     0001d420     00018e90   cc2640_ctrl_pxxx.a : ll_enc_patch.o (.text)
                             00018f00                      : ll_enc_patch.o (.text)
LL_ENC_EncryptMsg         $Tramp$TT$L$PI$$LL_ENC_EncryptMsg
   1000b721     0001d428     00018e9c   cc2640_ctrl_pxxx.a : ll_enc_patch.o (.text)
LL_ENC_DecryptMsg         $Tramp$TT$L$PI$$LL_ENC_DecryptMsg
   1000b851     0001d430     00018f10   cc2640_ctrl_pxxx.a : ll_enc_patch.o (.text)
LL_ENC_GenerateTrueRandNum  $Tramp$TT$L$PI$$LL_ENC_GenerateTrueRandNum
   1000b51d     0001d438     00019876   cc2640_ctrl_pxxx.a : ll_patch.o (.text)
WL_Init                   $Tramp$TT$L$PI$$WL_Init
   1000d189     0001d440     00019a08   cc2640_ctrl_pxxx.a : ll_patch.o (.text)
LL_ClearWhiteList         $Tramp$TT$L$PI$$LL_ClearWhiteList
   10005719     0001d448     00019a10   cc2640_ctrl_pxxx.a : ll_patch.o (.text)
llReleaseAllConnId        $Tramp$TT$L$PI$$llReleaseAllConnId
   10008461     0001d450     00019a74   cc2640_ctrl_pxxx.a : ll_patch.o (.text)
LL_ConnActive             $Tramp$TT$L$PI$$LL_ConnActive
   1000678d     0001d458     00019b32   cc2640_ctrl_pxxx.a : ll_patch.o (.text)
                             00019b82                      : ll_patch.o (.text)
                             00019bbc                      : ll_patch.o (.text)
                             00019bf6                      : ll_patch.o (.text)
                             00019d3c                      : ll_patch.o (.text)
                             0001a508                      : ll_patch.o (.text)
                             0001a550                      : ll_patch.o (.text)
                             0001a5c0                      : ll_patch.o (.text)
HCI_DataBufferOverflowEvent  $Tramp$TT$L$PI$$HCI_DataBufferOverflowEvent
   10008a2d     0001d460     00019d5a   cc2640_ctrl_pxxx.a : ll_patch.o (.text)
LL_DirectTestEndDoneCback  $Tramp$TT$L$PI$$LL_DirectTestEndDoneCback
   10009471     0001d468     0001a280   cc2640_ctrl_pxxx.a : ll_patch.o (.text)
llGetActiveTasks          $Tramp$TT$L$PI$$llGetActiveTasks
   1000aca9     0001d470     0001a3f4   cc2640_ctrl_pxxx.a : ll_patch.o (.text)
llSetupAdv                $Tramp$TT$L$PI$$llSetupAdv
   100073e5     0001d478     0001a420   cc2640_ctrl_pxxx.a : ll_patch.o (.text)
llGetNumTasks             $Tramp$TT$L$PI$$llGetNumTasks
   1000ace1     0001d480     0001a472   cc2640_ctrl_pxxx.a : ll_patch.o (.text)
llCheckForLstoDuringSL    $Tramp$TT$L$PI$$llCheckForLstoDuringSL
   1000c1b5     0001d488     0001aa4e   cc2640_ctrl_pxxx.a : ll_slave_end_causes_patch.o (.text)
llEventInRange            $Tramp$TT$L$PI$$llEventInRange
   100086f1     0001d490     0001aa70   cc2640_ctrl_pxxx.a : ll_slave_end_causes_patch.o (.text)
                             0001aa90                      : ll_slave_end_causes_patch.o (.text)
llSetupUnknownRsp         $Tramp$TT$L$PI$$llSetupUnknownRsp
   10008069     0001d498     0001accc   cc2640_ctrl_pxxx.a : ll_slave_end_causes_patch.o (.text)
LL_EncLtkReqCback         $Tramp$TT$L$PI$$LL_EncLtkReqCback
   1000925d     0001d4a0     0001ad64   cc2640_ctrl_pxxx.a : ll_slave_end_causes_patch.o (.text)
llSetupEncRsp             $Tramp$TT$L$PI$$llSetupEncRsp
   10007b95     0001d4a8     0001ad6c   cc2640_ctrl_pxxx.a : ll_slave_end_causes_patch.o (.text)
llSetupStartEncReq        $Tramp$TT$L$PI$$llSetupStartEncReq
   10007c55     0001d4b0     0001ada2   cc2640_ctrl_pxxx.a : ll_slave_end_causes_patch.o (.text)
LL_ENC_AES128_Encrypt     $Tramp$TT$L$PI$$LL_ENC_AES128_Encrypt
   1000b5f5     0001d4b8     0001adc8   cc2640_ctrl_pxxx.a : ll_slave_end_causes_patch.o (.text)
LL_EncKeyRefreshCback     $Tramp$TT$L$PI$$LL_EncKeyRefreshCback
   100093dd     0001d4c0     0001adfc   cc2640_ctrl_pxxx.a : ll_slave_end_causes_patch.o (.text)
LL_EncChangeCback         $Tramp$TT$L$PI$$LL_EncChangeCback
   1000933d     0001d4c8     0001ae06   cc2640_ctrl_pxxx.a : ll_slave_end_causes_patch.o (.text)
llSetupStartEncRsp        $Tramp$TT$L$PI$$llSetupStartEncRsp
   10007ca9     0001d4d0     0001ae18   cc2640_ctrl_pxxx.a : ll_slave_end_causes_patch.o (.text)
llSetupPauseEncRsp        $Tramp$TT$L$PI$$llSetupPauseEncRsp
   10007d55     0001d4d8     0001ae32   cc2640_ctrl_pxxx.a : ll_slave_end_causes_patch.o (.text)
LL_ReadRemoteVersionInfoCback  $Tramp$TT$L$PI$$LL_ReadRemoteVersionInfoCback
   100091e1     0001d4e0     0001aeaa   cc2640_ctrl_pxxx.a : ll_slave_end_causes_patch.o (.text)
                             0001aebe                      : ll_slave_end_causes_patch.o (.text)
llSetupVersionIndReq      $Tramp$TT$L$PI$$llSetupVersionIndReq
   10007f29     0001d4e8     0001aeca   cc2640_ctrl_pxxx.a : ll_slave_end_causes_patch.o (.text)
llMoveTempTxDataEntries   $Tramp$TT$L$PI$$llMoveTempTxDataEntries
   1000afa1     0001d4f0     0001af2a   cc2640_ctrl_pxxx.a : ll_slave_end_causes_patch.o (.text)
RFHAL_NextDataEntryDone   $Tramp$TT$L$PI$$RFHAL_NextDataEntryDone
   100184d5     0001d4f8     0001b2a0   cc2640_ctrl_pxxx.a : ll_isr.o (.text)
LL_PseudoRand             $Tramp$TT$L$PI$$LL_PseudoRand
   10005801     0001d500     0001bbac   onboard.obj (.text)
HCI_EXT_NumComplPktsLimitCmd  $Tramp$TT$L$PI$$HCI_EXT_NumComplPktsLimitCmd
   1000a1b5     0001d508     0001cbe6   ble_dispatch.obj (.text)
HCI_EXT_BuildRevisionCmd  $Tramp$TT$L$PI$$HCI_EXT_BuildRevisionCmd
   1000a109     0001d510     0001cbfa   ble_dispatch.obj (.text)
HCI_EXT_SetSlaveLatencyOverrideCmd  $Tramp$TT$L$PI$$HCI_EXT_SetSlaveLatencyOverrideCmd
   10009e6d     0001d518     0001cc00   ble_dispatch.obj (.text)
HCI_EXT_AdvEventNoticeCmd  $Tramp$TT$L$PI$$HCI_EXT_AdvEventNoticeCmd
   1000a0f1     0001d520     0001cc14   ble_dispatch.obj (.text)
HCI_EXT_PERbyChanCmd      $Tramp$TT$L$PI$$HCI_EXT_PERbyChanCmd
   1000a075     0001d528     0001cc1c   ble_dispatch.obj (.text)
HCI_EXT_PacketErrorRateCmd  $Tramp$TT$L$PI$$HCI_EXT_PacketErrorRateCmd
   1000a031     0001d530     0001cc24   ble_dispatch.obj (.text)
HCI_EXT_DisconnectImmedCmd  $Tramp$TT$L$PI$$HCI_EXT_DisconnectImmedCmd
   1000a011     0001d538     0001cc2a   ble_dispatch.obj (.text)
HCI_EXT_SetMaxDtmTxPowerCmd  $Tramp$TT$L$PI$$HCI_EXT_SetMaxDtmTxPowerCmd
   10009fd1     0001d540     0001cc30   ble_dispatch.obj (.text)
HCI_EXT_EnablePTMCmd      $Tramp$TT$L$PI$$HCI_EXT_EnablePTMCmd
   10009f69     0001d548     0001cc34   ble_dispatch.obj (.text)
HCI_EXT_SetSCACmd         $Tramp$TT$L$PI$$HCI_EXT_SetSCACmd
   10009f49     0001d550     0001cc3a   ble_dispatch.obj (.text)
HCI_EXT_SetBDADDRCmd      $Tramp$TT$L$PI$$HCI_EXT_SetBDADDRCmd
   10009f0d     0001d558     0001cc40   ble_dispatch.obj (.text)
HCI_EXT_EndModemTestCmd   $Tramp$TT$L$PI$$HCI_EXT_EndModemTestCmd
   10009eed     0001d560     0001cc44   ble_dispatch.obj (.text)
HCI_EXT_ModemTestRxCmd    $Tramp$TT$L$PI$$HCI_EXT_ModemTestRxCmd
   10009ecd     0001d568     0001cc4a   ble_dispatch.obj (.text)
HCI_EXT_ModemHopTestTxCmd  $Tramp$TT$L$PI$$HCI_EXT_ModemHopTestTxCmd
   10009ead     0001d570     0001cc4e   ble_dispatch.obj (.text)
HCI_EXT_ModemTestTxCmd    $Tramp$TT$L$PI$$HCI_EXT_ModemTestTxCmd
   10009e8d     0001d578     0001cc56   ble_dispatch.obj (.text)
HCI_EXT_SetFastTxResponseTimeCmd  $Tramp$TT$L$PI$$HCI_EXT_SetFastTxResponseTimeCmd
   10009e4d     0001d580     0001cc5c   ble_dispatch.obj (.text)
HCI_EXT_SetLocalSupportedFeaturesCmd  $Tramp$TT$L$PI$$HCI_EXT_SetLocalSupportedFeaturesCmd
   10009e2d     0001d588     0001cc62   ble_dispatch.obj (.text)
HCI_EXT_DecryptCmd        $Tramp$TT$L$PI$$HCI_EXT_DecryptCmd
   10009dd1     0001d590     0001cc6a   ble_dispatch.obj (.text)
HCI_EXT_OnePktPerEvtCmd   $Tramp$TT$L$PI$$HCI_EXT_OnePktPerEvtCmd
   10009d45     0001d598     0001cc70   ble_dispatch.obj (.text)
HCI_EXT_SetTxPowerCmd     $Tramp$TT$L$PI$$HCI_EXT_SetTxPowerCmd
   10009d09     0001d5a0     0001cc76   ble_dispatch.obj (.text)
HCI_LE_TestEndCmd         $Tramp$TT$L$PI$$HCI_LE_TestEndCmd
   10009c8d     0001d5a8     0001cc7a   ble_dispatch.obj (.text)
HCI_LE_ReadSupportedStatesCmd  $Tramp$TT$L$PI$$HCI_LE_ReadSupportedStatesCmd
   10009c15     0001d5b0     0001cc90   ble_dispatch.obj (.text)
HCI_LE_EncryptCmd         $Tramp$TT$L$PI$$HCI_LE_EncryptCmd
   10009af5     0001d5b8     0001cc98   ble_dispatch.obj (.text)
HCI_LE_ReadChannelMapCmd  $Tramp$TT$L$PI$$HCI_LE_ReadChannelMapCmd
   10009aa1     0001d5c0     0001cca4   ble_dispatch.obj (.text)
HCI_LE_RemoveWhiteListCmd  $Tramp$TT$L$PI$$HCI_LE_RemoveWhiteListCmd
   10009a31     0001d5c8     0001ccac   ble_dispatch.obj (.text)
HCI_LE_AddWhiteListCmd    $Tramp$TT$L$PI$$HCI_LE_AddWhiteListCmd
   10009a15     0001d5d0     0001ccb4   ble_dispatch.obj (.text)
HCI_LE_ClearWhiteListCmd  $Tramp$TT$L$PI$$HCI_LE_ClearWhiteListCmd
   100099f9     0001d5d8     0001ccb8   ble_dispatch.obj (.text)
HCI_LE_ReadWhiteListSizeCmd  $Tramp$TT$L$PI$$HCI_LE_ReadWhiteListSizeCmd
   100099c9     0001d5e0     0001ccbc   ble_dispatch.obj (.text)
HCI_LE_ReadAdvChanTxPowerCmd  $Tramp$TT$L$PI$$HCI_LE_ReadAdvChanTxPowerCmd
   100098f5     0001d5e8     0001ccc0   ble_dispatch.obj (.text)
HCI_LE_ReadLocalSupportedFeaturesCmd  $Tramp$TT$L$PI$$HCI_LE_ReadLocalSupportedFeaturesCmd
   10009829     0001d5f0     0001ccc4   ble_dispatch.obj (.text)
HCI_ReadLocalSupportedFeaturesCmd  $Tramp$TT$L$PI$$HCI_ReadLocalSupportedFeaturesCmd
   1000973d     0001d5f8     0001ccd8   ble_dispatch.obj (.text)
HCI_ReadTransmitPowerLevelCmd  $Tramp$TT$L$PI$$HCI_ReadTransmitPowerLevelCmd
   100095d1     0001d600     0001ccee   ble_dispatch.obj (.text)
HCI_SetEventMaskCmd       $Tramp$TT$L$PI$$HCI_SetEventMaskCmd
   10009571     0001d608     0001ccf8   ble_dispatch.obj (.text)
HCI_ReadRemoteVersionInfoCmd  $Tramp$TT$L$PI$$HCI_ReadRemoteVersionInfoCmd
   10009541     0001d610     0001ccfe   ble_dispatch.obj (.text)

[117 trampolines]
[198 trampoline calls]


GLOBAL SYMBOLS: SORTED ALPHABETICALLY BY Name 

address   name                                  
-------   ----                                  
10014c00  A1_rw                                 
10005000  A1_rw_1                               
10019ffe  A2_rw                                 
1000dffe  A2_rw_1                               
10019ffc  A3_rw                                 
1000dffc  A3_rw_1                               
20004f2c  A4_rw                                 
200048e8  A4_rw_1                               
20004f7c  ACCX                                  
20004f80  ACCY                                  
20004f84  ACCZ                                  
10015229  ATOMICPATTERN                         
00011293  ATT_BuildErrorRsp                     
000112c3  ATT_BuildExchangeMTUReq               
000112cf  ATT_BuildExchangeMTURsp               
000115e3  ATT_BuildExecuteWriteReq              
0001135b  ATT_BuildFindByTypeValueReq           
000113b7  ATT_BuildFindByTypeValueRsp           
000112f5  ATT_BuildFindInfoReq                  
00011301  ATT_BuildFindInfoRsp                  
00011607  ATT_BuildHandleValueInd               
00011569  ATT_BuildPrepareWriteReq              
00011593  ATT_BuildPrepareWriteRsp              
000114b7  ATT_BuildReadBlobReq                  
000114f5  ATT_BuildReadBlobRsp                  
0001152d  ATT_BuildReadByGrpTypeRsp             
000113d1  ATT_BuildReadByTypeReq                
0001143d  ATT_BuildReadByTypeRsp                
00011507  ATT_BuildReadMultiReq                 
00011527  ATT_BuildReadMultiRsp                 
0001145f  ATT_BuildReadReq                      
0001147b  ATT_BuildReadRsp                      
000114ab  ATT_BuildWriteReq                     
000116d5  ATT_CompareUUID                       
00011725  ATT_ConvertUUIDto128                  
0001174d  ATT_ConvertUUIDto16                   
00011053  ATT_ErrorRsp                          
00011065  ATT_ExchangeMTURsp                    
00011197  ATT_ExecuteWriteRsp                   
000110ad  ATT_FindByTypeValueRsp                
0001107d  ATT_FindInfoRsp                       
000117b5  ATT_GetMTU                            
000117d5  ATT_GetParamValue                     
000111b9  ATT_HandleValueInd                    
000111a3  ATT_HandleValueNoti                   
000112a5  ATT_ParseErrorRsp                     
000112c5  ATT_ParseExchangeMTUReq               
000112df  ATT_ParseExchangeMTURsp               
000115eb  ATT_ParseExecuteWriteReq              
000115fd  ATT_ParseExecuteWriteRsp              
00011375  ATT_ParseFindByTypeValueReq           
000113bf  ATT_ParseFindByTypeValueRsp           
000112f7  ATT_ParseFindInfoReq                  
00011319  ATT_ParseFindInfoRsp                  
00011647  ATT_ParseHandleValueCfm               
0001161b  ATT_ParseHandleValueInd               
00011239  ATT_ParsePacket                       
0001156b  ATT_ParsePrepareWriteReq              
000115b1  ATT_ParsePrepareWriteRsp              
000114d1  ATT_ParseReadBlobReq                  
000114f9  ATT_ParseReadBlobRsp                  
0001153f  ATT_ParseReadByGrpTypeRsp             
00011401  ATT_ParseReadByTypeReq                
0001143f  ATT_ParseReadByTypeRsp                
0001150f  ATT_ParseReadMultiReq                 
0001152b  ATT_ParseReadMultiRsp                 
00011461  ATT_ParseReadReq                      
0001147f  ATT_ParseReadRsp                      
00011481  ATT_ParseWriteReq                     
000114ad  ATT_ParseWriteRsp                     
0001117d  ATT_PrepareWriteRsp                   
00011115  ATT_ReadBlobRsp                       
0001114f  ATT_ReadByGrpTypeRsp                  
000110cd  ATT_ReadByTypeRsp                     
00011131  ATT_ReadMultiRsp                      
000110f9  ATT_ReadRsp                           
0001104d  ATT_RegisterServer                    
000117d3  ATT_SetParamValue                     
0001178b  ATT_UpdateMTU                         
00011171  ATT_WriteRsp                          
10016c29  AddRoundKeySubBytes_Sw                
10018a19  AesCcm_authEncrypt_Sw                 
10018a35  AesCcm_decryptAuth_Sw                 
10018b09  AesCcm_getNumBlocks_Sw                
10018ac5  Aes_decrypt_Sw                        
10018a99  Aes_encrypt_Sw                        
20004f2c  COMMON_RAM_BASE_ADDR                  
10014c01  COMMON_ROM_BASE_ADDR                  
10015a6d  COPY                                  
0001cf45  CommonROM_Init                        
10017959  ECC_allocWorkzone                     
10017dbd  ECC_keyGen                            
10017961  ECC_setWin                            
10017ded  ECDH_commonKey                        
10017969  ECDSA_sign                            
10017b01  ECDSA_verif                           
10015a11  EXPORTOPERAND                         
20004f78  EXPW                                  
20004f6c  EXPX                                  
20004f70  EXPY                                  
20004f74  EXPZ                                  
10016f58  FFMult2                               
10017058  FFMult3                               
10016d05  FFMult_Sw                             
10018d6c  Fill1                                 
1000d9ec  Fill1_1                               
00011d0b  GAP_Authenticate                      
00011e41  GAP_Bond                              
0001187d  GAP_ConfigDeviceAddr                  
0001ce2b  GAP_DeviceInit                        
000125ef  GAP_EndDiscoverable                   
00012699  GAP_GetAdvToken                       
00011877  GAP_GetIRK                            
00011803  GAP_GetParamValue                     
00012c7f  GAP_Init                              
000124e9  GAP_MakeDiscoverable                  
00012d5b  GAP_NumActiveConnections              
00011813  GAP_ParamsInit                        
00011df5  GAP_PasscodeUpdate                    
00011dc3  GAP_PasskeyUpdate                     
00012ba3  GAP_PeriConnRegister                  
000126dd  GAP_PeriDevMgrInit                    
00011855  GAP_PrivacyInit                       
00012c95  GAP_ProcessEvent                      
00012eeb  GAP_RegisterBondMgrCBs                
00012c79  GAP_RegisterForMsgs                   
000126b5  GAP_RemoveAdvToken                    
00011b29  GAP_ResolvePrivateAddr                
0001183b  GAP_SecParamsInit                     
00012b69  GAP_SendSlaveSecurityRequest          
0001263b  GAP_SetAdvToken                       
000117e9  GAP_SetParamValue                     
00011cc3  GAP_Signable                          
00011da5  GAP_TerminateAuth                     
00011bd9  GAP_TerminateLinkReq                  
000126c9  GAP_UpdateAdvTokens                   
00012581  GAP_UpdateAdvertisingData             
00011c53  GAP_UpdateLinkParamReq                
00014313  GATTServApp_AddService                
00014329  GATTServApp_DelService                
000141bd  GATTServApp_DeregisterService         
00015003  GATTServApp_GetParamValue             
0001425d  GATTServApp_GetParameter              
000140dd  GATTServApp_Init                      
0001d25f  GATTServApp_InitCharCfg               
0001412b  GATTServApp_ProcessEvent              
00014d81  GATTServApp_ReadAttr                  
0001d24f  GATTServApp_ReadCharCfg               
000140d5  GATTServApp_RegisterForMsg            
00014169  GATTServApp_RegisterService           
00015079  GATTServApp_SendCCCUpdatedEvent       
00015001  GATTServApp_SetParamValue             
000141ff  GATTServApp_SetParameter              
20004494  GATTServApp_TaskID                    
00015007  GATTServApp_UpdateCharCfg             
00014f79  GATTServApp_WriteAttr                 
00013cb7  GATT_AppCompletedMsg                  
0001333b  GATT_DeregisterService                
000134d7  GATT_FindHandle                       
0001347b  GATT_FindHandleUUID                   
0001351f  GATT_FindNextAttr                     
00013f95  GATT_FindUUIDRec                      
00013c11  GATT_GetNextHandle                    
00013673  GATT_Indication                       
00013cdf  GATT_Init                             
0001323d  GATT_InitServer                       
000136e1  GATT_Notification                     
00013e49  GATT_NotifyEvent                      
00013cfd  GATT_ProcessEvent                     
00013ca5  GATT_RegisterForMsgs                  
0001337b  GATT_RegisterForReq                   
000132a3  GATT_RegisterService                  
000135bf  GATT_SendRsp                          
00013409  GATT_ServiceChangedInd                
000135af  GATT_ServiceEncKeySize                
000135a3  GATT_ServiceNumAttrs                  
00013cab  GATT_SetHostToAppFlowCtrl             
00013c0f  GATT_SetNextHandle                    
00013e5d  GATT_UpdateMTU                        
00013383  GATT_VerifyReadPermissions            
000133b7  GATT_VerifyWritePermissions           
00013f09  GATT_bm_alloc                         
00013f81  GATT_bm_free                          
10015141  GETBIT                                
10015155  GETDIGIT                              
100151a5  GETDIGITL2R                           
00012fcd  GGS_AddService                        
00012fe5  GGS_DelService                        
00012fc9  GGS_GetParamValue                     
00012f91  GGS_GetParameter                      
00012ff9  GGS_RegisterAppCBs                    
00012fc7  GGS_SetParamValue                     
00012f11  GGS_SetParameter                      
10008add  HCI_CommandCompleteEvent              
10008ba1  HCI_CommandStatusEvent                
10008a2d  HCI_DataBufferOverflowEvent           
10009525  HCI_DisconnectCmd                     
1000a0f1  HCI_EXT_AdvEventNoticeCmd             
1000a109  HCI_EXT_BuildRevisionCmd              
10009d79  HCI_EXT_ClkDivOnHaltCmd               
00017dd3  HCI_EXT_ConnEventNoticeCmd            
10009dad  HCI_EXT_DeclareNvUsageCmd             
10009dd1  HCI_EXT_DecryptCmd                    
00017daf  HCI_EXT_DelaySleepCmd                 
1000a011  HCI_EXT_DisconnectImmedCmd            
10009f69  HCI_EXT_EnablePTMCmd                  
10009eed  HCI_EXT_EndModemTestCmd               
1000a095  HCI_EXT_ExtendRfRangeCmd              
00017c43  HCI_EXT_GetConnInfoCmd                
1000a0d1  HCI_EXT_HaltDuringRfCmd               
10009ff1  HCI_EXT_MapPmIoPortCmd                
10009ead  HCI_EXT_ModemHopTestTxCmd             
10009ecd  HCI_EXT_ModemTestRxCmd                
10009e8d  HCI_EXT_ModemTestTxCmd                
1000a1b5  HCI_EXT_NumComplPktsLimitCmd          
10009d45  HCI_EXT_OnePktPerEvtCmd               
1000a195  HCI_EXT_OverlappedProcessingCmd       
1000a075  HCI_EXT_PERbyChanCmd                  
1000a031  HCI_EXT_PacketErrorRateCmd            
00017d89  HCI_EXT_ResetSystemCmd                
10009fb1  HCI_EXT_SaveFreqTuneCmd               
10009f0d  HCI_EXT_SetBDADDRCmd                  
10009e4d  HCI_EXT_SetFastTxResponseTimeCmd      
10009f81  HCI_EXT_SetFreqTuneCmd                
10009e2d  HCI_EXT_SetLocalSupportedFeaturesCmd  
10009fd1  HCI_EXT_SetMaxDtmTxPowerCmd           
10009cd5  HCI_EXT_SetRxGainCmd                  
10009f49  HCI_EXT_SetSCACmd                     
10009e6d  HCI_EXT_SetSlaveLatencyOverrideCmd    
10009d09  HCI_EXT_SetTxPowerCmd                 
0001b3ab  HCI_ExtTaskRegister                   
0001b399  HCI_GAPTaskRegister                   
10008bf5  HCI_HardwareErrorEvent                
10009631  HCI_HostBufferSizeCmd                 
1000965d  HCI_HostNumCompletedPktCmd            
0001b325  HCI_Init                              
0001b39f  HCI_L2CAPTaskRegister                 
10009a15  HCI_LE_AddWhiteListCmd                
100099f9  HCI_LE_ClearWhiteListCmd              
00017d79  HCI_LE_ConnUpdateCmd                  
1000999d  HCI_LE_CreateConnCancelCmd            
1000995d  HCI_LE_CreateConnCmd                  
10009af5  HCI_LE_EncryptCmd                     
10009be1  HCI_LE_LtkReqNegReplyCmd              
10009bc5  HCI_LE_LtkReqReplyCmd                 
10009b51  HCI_LE_RandCmd                        
100098f5  HCI_LE_ReadAdvChanTxPowerCmd          
00017cd1  HCI_LE_ReadBufSizeCmd                 
10009aa1  HCI_LE_ReadChannelMapCmd              
10009829  HCI_LE_ReadLocalSupportedFeaturesCmd  
00017d03  HCI_LE_ReadRemoteUsedFeaturesCmd      
10009c15  HCI_LE_ReadSupportedStatesCmd         
100099c9  HCI_LE_ReadWhiteListSizeCmd           
00017d3f  HCI_LE_ReceiverTestCmd                
00017cff  HCI_LE_RemoteConnParamReqReplyCmd     
10009a31  HCI_LE_RemoveWhiteListCmd             
100098a1  HCI_LE_SetAdvDataCmd                  
100098d9  HCI_LE_SetAdvEnableCmd                
1000986d  HCI_LE_SetAdvParamCmd                 
00017dd7  HCI_LE_SetEventMaskCmd                
10009a85  HCI_LE_SetHostChanClassificationCmd   
10009849  HCI_LE_SetRandomAddressCmd            
10009941  HCI_LE_SetScanEnableCmd               
10009915  HCI_LE_SetScanParamCmd                
100098bd  HCI_LE_SetScanRspDataCmd              
10009ba9  HCI_LE_StartEncyptCmd                 
10009c8d  HCI_LE_TestEndCmd                     
00017d2d  HCI_LE_TransmitterTestCmd             
000177e7  HCI_NumOfCompletedPacketsEvent        
0001b357  HCI_ProcessEvent                      
10009765  HCI_ReadBDADDRCmd                     
00017c2f  HCI_ReadLocalSupportedCommandsCmd     
1000973d  HCI_ReadLocalSupportedFeaturesCmd     
00017e0d  HCI_ReadLocalVersionInfoCmd           
10009541  HCI_ReadRemoteVersionInfoCmd          
00017e65  HCI_ReadRssiCmd                       
100095d1  HCI_ReadTransmitPowerLevelCmd         
00017c0d  HCI_ResetCmd                          
1000d7cd  HCI_ReverseBytes                      
0001b3a5  HCI_SMPTaskRegister                   
10008c81  HCI_SendCommandCompleteEvent          
10008c59  HCI_SendCommandStatusEvent            
10008d31  HCI_SendControllerToHostEvent         
100094e9  HCI_SendDataPkt                       
100095f5  HCI_SetControllerToHostFlowCtrlCmd    
10009571  HCI_SetEventMaskCmd                   
00017d51  HCI_SetEventMaskPage2Cmd              
0001b393  HCI_TestAppTaskRegister               
00017bd1  HCI_ValidConnTimeParams               
00017b55  HCI_VendorSpecifcCommandCompleteEvent 
100094a1  HCI_bm_alloc                          
0001ba35  HalTRNG_GetTRNG                       
0001ba19  HalTRNG_InitTRNG                      
2000453c  ICall_dispatcher                      
20004540  ICall_enterCriticalSection            
20004544  ICall_leaveCriticalSection            
10015a35  IMPORTDATA                            
100159a9  IMPORTLENGTH                          
100159ad  IMPORTMODULUS                         
100159d1  IMPORTOPERAND                         
1001568d  INVERT                                
10016da1  InvAddRoundKey_Sw                     
10016ed5  InvMixColumns_Sw                      
10016dc9  InvRoundKey_Sw                        
10017264  InvSbox                               
10016ea1  InvShiftRows_Sw                       
10016e8d  InvSubBytes_Sw                        
100154f5  JACADD                                
00015767  L2CAP_BuildCmdReject                  
0001587f  L2CAP_BuildInfoRsp                    
0001584b  L2CAP_BuildParamUpdateRsp             
00015149  L2CAP_CmdReject                       
0001516f  L2CAP_ConnParamUpdateReq              
000151a5  L2CAP_ConnParamUpdateRsp              
00015213  L2CAP_GetMTU                          
00015b6d  L2CAP_GetParamValue                   
000151f1  L2CAP_HostNumCompletedPkts            
00015157  L2CAP_InfoReq                         
0001523d  L2CAP_Init                            
00015867  L2CAP_ParseInfoReq                    
00015811  L2CAP_ParseParamUpdateReq             
0001529f  L2CAP_ProcessEvent                    
000150bd  L2CAP_RegisterApp                     
000153ab  L2CAP_RegisterFlowCtrlTask            
000150e7  L2CAP_SendData                        
00015207  L2CAP_SetBufSize                      
000151b7  L2CAP_SetControllerToHostFlowCtrl     
00015b6b  L2CAP_SetParamValue                   
00015239  L2CAP_SetUserConfig                   
00015b51  L2CAP_bm_alloc                        
20004fe8  LEN                                   
10005739  LL_AddWhiteListDevice                 
10008d81  LL_AdvReportCback                     
000178c7  LL_AuthPayloadTimeoutExpiredCback     
10005719  LL_ClearWhiteList                     
1000678d  LL_ConnActive                         
000176e9  LL_ConnParamUpdateCback               
10008ead  LL_ConnectionCompleteCback            
100058d5  LL_CtrlToHostFlowControl              
0001a219  LL_DirectTestEnd                      
10009471  LL_DirectTestEndDoneCback             
0001a119  LL_DirectTestRxTest                   
00019f9d  LL_DirectTestTxTest                   
10005a39  LL_Disconnect                         
10009005  LL_DisconnectCback                    
0001afa5  LL_DoorbellErrorCback                 
1000b639  LL_ENC_AES128_Decrypt                 
1000b5f5  LL_ENC_AES128_Encrypt                 
00018ebf  LL_ENC_Decrypt                        
1000b851  LL_ENC_DecryptMsg                     
00018e51  LL_ENC_Encrypt                        
1000b721  LL_ENC_EncryptMsg                     
1000b555  LL_ENC_GenDeviceIV                    
1000b541  LL_ENC_GenDeviceSKD                   
1000b569  LL_ENC_GenerateNonce                  
1000b50d  LL_ENC_GeneratePseudoRandNum          
1000b51d  LL_ENC_GenerateTrueRandNum            
1000b4c9  LL_ENC_Init                           
1000b58d  LL_ENC_LoadKey                        
1000b4ed  LL_ENC_ReverseBytes                   
10007025  LL_EXT_AdvEventNotice                 
0001a58d  LL_EXT_BuildRevision                  
10006b7d  LL_EXT_ClkDivOnHalt                   
0001a549  LL_EXT_ConnEventNotice                
10006b81  LL_EXT_DeclareNvUsage                 
10006b85  LL_EXT_Decrypt                        
100070a1  LL_EXT_DelaySleep                     
0001a5bd  LL_EXT_DisconnectImmed                
00019f77  LL_EXT_EndModemTest                   
1000701d  LL_EXT_ExtendRfRange                  
1000a2ad  LL_EXT_ExtendRfRangeCback             
00019acb  LL_EXT_GetConnInfo                    
10007021  LL_EXT_HaltDuringRf                   
10006f49  LL_EXT_MapPmIoPort                    
00019dbd  LL_EXT_ModemHopTestTx                 
00019ee1  LL_EXT_ModemTestRx                    
00019e5d  LL_EXT_ModemTestTx                    
0001a567  LL_EXT_NumComplPktsLimit              
10006b59  LL_EXT_OnePacketPerEvent              
10007109  LL_EXT_OverlappedProcessing           
10006fed  LL_EXT_PERbyChan                      
10006f99  LL_EXT_PacketErrorRate                
1000a259  LL_EXT_PacketErrorRateCback           
100070d5  LL_EXT_ResetSystem                    
10006efd  LL_EXT_SaveFreqTune                   
10006e01  LL_EXT_SetBDADDR                      
10006bc5  LL_EXT_SetFastTxResponseTime          
10006ef9  LL_EXT_SetFreqTune                    
00019c41  LL_EXT_SetLocalSupportedFeatures      
00019cb5  LL_EXT_SetMaxDtmTxPower               
10006ad9  LL_EXT_SetRxGain                      
1000a201  LL_EXT_SetRxGainCback                 
10006e85  LL_EXT_SetSCA                         
10006bdd  LL_EXT_SetSlaveLatencyOverride        
00019c81  LL_EXT_SetTxPower                     
1000a211  LL_EXT_SetTxPowerCback                
1000933d  LL_EncChangeCback                     
100093dd  LL_EncKeyRefreshCback                 
00019bb9  LL_EncLtkNegReply                     
00019b77  LL_EncLtkReply                        
1000925d  LL_EncLtkReqCback                     
100057d5  LL_Encrypt                            
0001793b  LL_EnhancedConnectionCompleteCback    
0001a4d7  LL_GetNumActiveConns                  
00019635  LL_Init                               
0001afb5  LL_LastCmdDoneCback                   
100057b9  LL_NumEmptyWlEntries                  
0001af35  LL_PM_Enter_AES                       
0001af4b  LL_PM_Exit_AES                        
0001af31  LL_PM_GetRfCoreState                  
0001af75  LL_PM_PowerOffRfCore                  
0001989f  LL_ProcessEvent                       
10005801  LL_PseudoRand                         
1000556d  LL_RX_bm_alloc                        
100057f5  LL_Rand                               
1000a1d5  LL_RandCback                          
10006105  LL_ReadAdvChanTxPower                 
100056c9  LL_ReadBDADDR                         
100059a1  LL_ReadChanMap                        
10005879  LL_ReadLocalSupportedFeatures         
1000589d  LL_ReadLocalVersionInfo               
00019bf3  LL_ReadRemoteUsedFeatures             
0001777b  LL_ReadRemoteUsedFeaturesCompleteCback
100058e9  LL_ReadRemoteVersionInfo              
100091e1  LL_ReadRemoteVersionInfoCback         
0001a4e3  LL_ReadRssi                           
0001a4bb  LL_ReadSupportedStates                
00019ccf  LL_ReadTxPowerLevel                   
100057a1  LL_ReadWlSize                         
10005765  LL_RemoveWhiteListDevice              
000199d3  LL_Reset                              
000175fd  LL_RxDataCompleteCback                
0001b195  LL_RxEntryDoneCback                   
0001b193  LL_RxIgnoredCback                     
0001a3b9  LL_SetAdvControl                      
10005f89  LL_SetAdvData                         
0001a2a5  LL_SetAdvParam                        
100056e9  LL_SetRandomAddress                   
1000612d  LL_SetScanRspData                     
10005549  LL_TX_bm_alloc                        
20004c84  LL_TaskID                             
00019d0d  LL_TxData                             
0001b165  LL_TxDoneCback                        
0001b179  LL_TxEntryDoneCback                   
100158ac  LUTC                                  
100158dc  LUTINCI                               
100158f4  LUTJ                                  
1001588c  LUTOPCODE                             
10015894  LUTOPSIGN                             
100158c4  LUTSE                                 
1001596c  LUTSTATE                              
20004fe4  MOD                                   
20004fd8  MSBMOD                                
10016c79  MixColumns_Sw                         
10018b9c  NIST256_Gx                            
10018bc0  NIST256_Gy                            
10018b54  NIST256_a                             
10018b78  NIST256_b                             
10018b0c  NIST256_p                             
10018b30  NIST256_r                             
0001b76b  NOROM_CPUcpsid                        
0001b75f  NOROM_CPUcpsie                        
0001ba79  NOROM_IntDisable                      
0001bae1  NOROM_IntEnable                       
0001b9f5  NOROM_TRNGConfigure                   
200048d0  OSAL_timeSeconds                      
0001bba7  Onboard_rand                          
0001bba5  Onboard_soft_reset                    
10014c04  P1_ro                                 
10005004  P1_ro_1                               
10019ffe  P1_ro_2                               
1000dffe  P1_ro_2_1                             
20004f40  P2_rw                                 
20004f40  P2_s0                                 
20004fac  P2_zi                                 
200048fc  P2_zi_1                               
0001d748  R2F_Flash_JT                          
0001d63c  R2F_Flash_JT_CommonROM                
0001d7f0  R2R_Flash_JT                          
0001d654  R2R_Flash_JT_CommonROM                
200048e8  RAM_BASE_ADDR                         
10017158  RCon                                  
00017565  RFHAL_AddTxDataEntry                  
100184f9  RFHAL_AllocDataEntry                  
100184a9  RFHAL_AllocDataEntryQueue             
10018315  RFHAL_AllocRatChan                    
100185e1  RFHAL_BuildDataEntryRingBuffer        
10018669  RFHAL_BuildLinkedBuffer               
10018551  RFHAL_BuildRingBuffer                 
10018549  RFHAL_FreeDataEntry                   
100184c5  RFHAL_FreeDataEntryQueue              
10018485  RFHAL_FreeNextTxDataEntry             
1001833d  RFHAL_FreeRatChan                     
100184cd  RFHAL_GetNextDataEntry                
100184d1  RFHAL_GetTempDataEntry                
100183b9  RFHAL_InitDataQueue                   
00017503  RFHAL_InitRfHal                       
10018369  RFHAL_MapRatChansToInt                
100184d5  RFHAL_NextDataEntryDone               
100183c5  RFHAL_QueueRFDataEntries              
10018391  RFHAL_RegisterRatChanCallback         
10005001  ROM_BASE_ADDR                         
0001bb73  ROM_Init                              
0001bb5d  ROM_Spinlock                          
10016b79  RoundKey_Sw                           
10015101  SAVEPOINT                             
1000d964  SCA                                   
20004f68  SCAL                                  
100150e5  SCALARMUL                             
10014ced  SCALARMUL_core                        
10015019  SCALARMUL_final                       
10014c05  SCALARMUL_init                        
10015a51  SETOPERAND                            
10015a91  SETWORD                               
10018089  SHA256_final                          
10018129  SHA256_full                           
10017ffd  SHA256_init                           
10017ef1  SHA256_nextState                      
10018019  SHA256_process                        
10017e75  SHA256_round                          
10017f49  SHA256_saveBuffer                     
10017e39  SHA256_updateW                        
UNDEFED   SHT$$INIT_ARRAY$$Base                 
UNDEFED   SHT$$INIT_ARRAY$$Limit                
00015e4d  SM_CalcRandomAddr                     
00015ed9  SM_Encrypt                            
00016167  SM_GenerateAuthenSig                  
00016c99  SM_Init                               
00016553  SM_PasskeyUpdate                      
00016cb5  SM_ProcessEvent                       
00015e85  SM_ResolveRandomAddrs                 
000164c9  SM_StartPairing                       
00016201  SM_VerifyAuthenSig                    
10015821  SQUAREMULTIPLYWORD                    
10017895  SSP_CCM_Auth_Encrypt_Sw               
10017365  SSP_CCM_Auth_Sw                       
1001767d  SSP_CCM_Decrypt_Sw                    
100174fd  SSP_CCM_Encrypt_Sw                    
100178f5  SSP_CCM_InvAuth_Decrypt_Sw            
10017839  SSP_CCM_InvAuth_Sw                    
10017771  SSP_CTR_Decrypt_Sw                    
100175ed  SSP_CTR_Encrypt_Sw                    
10017164  Sbox                                  
10015215  SelectReg                             
10016c45  ShiftRows_Sw                          
20004750  SysBootMsg                            
20004f88  TMP1                                  
20004f8c  TMP2                                  
20004f90  TMP3                                  
20004f94  TMP4                                  
20004f98  TMP5                                  
20004f9c  TMP6                                  
1000d2d9  WL_AddEntry                           
1000d1ad  WL_Clear                              
1000d1f5  WL_ClearEntry                         
1000d425  WL_ClearIgnoreList                    
1000d26d  WL_FindEntry                          
1000d23d  WL_GetNumFreeEntries                  
1000d229  WL_GetSize                            
1000d189  WL_Init                               
1000d36d  WL_RemoveEntry                        
1000d3dd  WL_SetWlIgnore                        
10015a85  ZERO                                  
0001dd88  __TI_CINIT_Base                       
0001dd98  __TI_CINIT_Limit                      
0001dd80  __TI_Handler_Table_Base               
0001dd88  __TI_Handler_Table_Limit              
0001b3cd  __TI_auto_init                        
0001d21d  __TI_decompress_none                  
0001d217  __TI_decompress_rle24                 
ffffffff  __TI_pprof_out_hndl                   
ffffffff  __TI_prof_data_size                   
ffffffff  __TI_prof_data_start                  
00011000  __TI_static_base__                    
0001b43d  __aeabi_lmul                          
0001b4f1  __aeabi_memclr                        
0001b4f1  __aeabi_memclr4                       
0001b4f1  __aeabi_memclr8                       
0001b455  __aeabi_memcpy                        
0001b455  __aeabi_memcpy4                       
0001b455  __aeabi_memcpy8                       
0001b4f3  __aeabi_memset                        
0001b4f3  __aeabi_memset4                       
0001b4f3  __aeabi_memset8                       
0001b56b  __aeabi_uldivmod                      
ffffffff  __binit__                             
ffffffff  __c_args__                            
1000dffe  __checksum                            
10019ffe  __checksum_CommonROM                  
10005000  __checksum_begin                      
10014c00  __checksum_begin_CommonROM            
1000dffd  __checksum_end                        
10019ffd  __checksum_end_CommonROM              
00005721  __checksum_value                      
0000e0ea  __checksum_value_CommonROM            
10018ced  __exit                                
000140d3  _system_post_cinit                    
1000d9b0  advChan                               
20004c24  advCmd                                
20004bdc  advDataEntry                          
20004c14  advDataQueue                          
1000d9b4  advEvt2Cmd                            
1000d9c0  advEvt2State                          
200049ec  advInfo                               
2000473c  advInfoExt                            
20004e98  advOutput                             
20004d58  advParam                              
0001dd30  advPktSuffix                          
200046f5  appTaskID                             
000140b4  appearanceUUID                        
200048d8  assertSubcause                        
00011651  attSendMsg                            
20004fdc  aux64                                 
20004850  baseTaskID                            
ffffffff  binit                                 
0001cdc7  bleDispatch_BMAlloc                   
0001cdf3  bleDispatch_BMFree                    
0001ce0b  bleDispatch_Init                      
0001cd67  bleDispatch_ProcessEvent              
20004550  bleDispatch_TaskID                    
20004f08  bleEvtMask                            
000117d8  btBaseUUID                            
20004c98  buildInfo                             
20004ee8  cachedTRNGdata                        
20004854  cbTimers                              
20004ca8  chanMapUpdate                         
000140ac  charAggFormatUUID                     
00014098  charExtPropsUUID                      
000140a8  charFormatUUID                        
0001409c  charUserDescUUID                      
00014094  characterUUID                         
000140a0  clientCharCfgUUID                     
20004e70  connOutput                            
20004dc8  connReqData                           
0001d161  copy_in                               
20004f24  ctrlToHostEnable                      
20004cb9  curTxPowerVal                         
20004fa0  data_Gx                               
20004fa4  data_Gy                               
20004f50  data_a                                
20004fa8  data_b                                
20004f48  data_p                                
20004f4c  data_r                                
20004ed0  deviceFeatureSet                      
000140b0  deviceNameUUID                        
20004edc  dtmInfo                               
000140cc  extReportRefUUID                      
20004cbb  fastTxRespTime                        
20004fcc  fwInfoCmd                             
000119f9  gapAddAddrAdj                         
00012965  gapAddAdvToken                        
200045ac  gapAppTaskID                          
200045af  gapAutoAdvPrivateAddrChange           
00012a1b  gapBuildADTokens                      
000129e5  gapCalcAdvTokenDataLen                
00011bab  gapClrState                           
00012999  gapDeleteAdvToken                     
200045ae  gapDeviceAddrMode                     
00011b4f  gapFindADType                         
000129cb  gapFindAdvToken                       
00012265  gapFreeEstLink                        
00011ab7  gapGetDevAddress                      
00011ab1  gapGetDevAddressMode                  
00011a89  gapGetSRK                             
00011a8f  gapGetSignCounter                     
00011a1f  gapHost2CtrlOwnAddrType               
00011a97  gapIncSignCounter                     
00011b2d  gapIsAdvertising                      
00011b31  gapIsScanning                         
00012395  gapPairingCompleteCB                  
0001232d  gapPasskeyNeededCB                    
200045b0  gapPrivateAddrChangeTimeout           
00011f49  gapProcessConnectionCompleteEvt       
0001200f  gapProcessDisconnectCompleteEvt       
000119cb  gapProcessNewAddr                     
00011a29  gapProcessRandomAddrComplete          
00011ff5  gapProcessRemoteConnParamReqEvt       
200045ad  gapProfileRole                        
00011953  gapReadBD_ADDRStatus                  
0001198b  gapReadBufSizeCmdStatus               
00012edf  gapRegisterCentral                    
00012ee5  gapRegisterPeripheral                 
000124c5  gapRegisterPeripheralConn             
00012281  gapSendBondCompleteEvent              
000120f1  gapSendLinkUpdateEvent                
000122d3  gapSendPairingReqEvent                
00011f07  gapSendSlaveSecurityReqEvent          
00013230  gapServiceCBs                         
00014080  gapServiceUUID                        
000127a1  gapSetAdvParams                       
00012813  gapSetAdvParamsStatus                 
00011ba1  gapSetState                           
2000445c  gapState                              
20004648  gapTaskID                             
20004649  gapUnwantedTaskID                     
00011eb7  gapUpdateConnSignCounter              
00011b3b  gapValidADType                        
000128cb  gapWriteAdvDataStatus                 
00012835  gapWriteAdvEnableStatus               
200046f4  gattAppTaskID                         
00013eb5  gattGetPayload                        
00013dcb  gattNotifyEvent                       
20004470  gattNumConns                          
00013c9f  gattRegisterClient                    
00013c99  gattRegisterServer                    
00013e83  gattSendFlowCtrlEvt                   
00014084  gattServiceUUID                       
00013e21  gattStartTimer                        
00013e31  gattStopTimer                         
20004471  gattTaskID                            
200048dc  halAssertCback                        
0001b9c3  halAssertHandler                      
0001b9c5  halAssertHandlerExt                   
0001b9db  halAssertInit                         
0001b9c1  halAssertSpinlock                     
20004537  hciExtTaskID                          
20004534  hciGapTaskID                          
000176a5  hciInitEventMasks                     
20004535  hciL2capTaskID                        
20004f28  hciPTMenabled                         
20004536  hciSmpTaskID                          
20004532  hciTaskID                             
20004533  hciTestTaskID                         
20004f58  inPointX                              
20004f5c  inPointY                              
20004f54  inScalar                              
00014090  includeUUID                           
20004db0  initCmd                               
20004b94  initDataEntry                         
20004bcc  initDataQueue                         
20004e58  initInfo                              
20004eb8  initOutput                            
20004cf0  initParam                             
0001dd38  initPktSuffix                         
000159b5  l2capAllocConnChannel                 
00015857  l2capBuildInfoReq                     
000157e5  l2capBuildParamUpdateReq              
2000470c  l2capChannels                         
00015ab1  l2capDisconnectAllChannels            
0001566b  l2capEncapSendData                    
00015a15  l2capFindLocalId                      
200044a4  l2capFixedChannels                    
00015a07  l2capFreeChannel                      
00015aaf  l2capHandleRxError                    
200046f6  l2capMtuSize                          
00015923  l2capNotifyData                       
00015967  l2capNotifySignal                     
20004709  l2capNumChannels                      
2000470a  l2capNumDataPkts                      
000157a5  l2capParseCmdReject                   
000158c5  l2capParseInfoRsp                     
00015711  l2capParsePacket                      
0001584d  l2capParseParamUpdateRsp              
000154ed  l2capParseSignalHdr                   
00015569  l2capSendCmd                          
000155fd  l2capSendPkt                          
00015501  l2capSendReq                          
00015a3f  l2capStartTimer                       
00015a53  l2capStopTimer                        
000155d7  l2capStoreFCPkt                       
20004708  l2capTaskID                           
200048d9  legacyMode                            
200044d4  linkDBNumConns                        
00015bdb  linkDB_Add                            
00015daf  linkDB_Authen                         
00015cd5  linkDB_Find                           
00015cfd  linkDB_FindFirst                      
00015c95  linkDB_GetInfo                        
00015b71  linkDB_Init                           
00015da3  linkDB_MTU                            
00015d5d  linkDB_NumActive                      
00015d83  linkDB_NumConns                       
00015dfb  linkDB_PerformFunc                    
00015bbd  linkDB_Register                       
00015c41  linkDB_Remove                         
00015d51  linkDB_Role                           
00015d2f  linkDB_State                          
00015c75  linkDB_Update                         
00015d89  linkDB_UpdateMTU                      
0001a73b  llActiveTask                          
1000cd51  llAdv_TaskAbort                       
00017ff9  llAdv_TaskConnect                     
00017f37  llAdv_TaskEnd                         
00018903  llAlignToNextEvent                    
00018379  llAllocConnId                         
0001a6bf  llAllocTask                           
100082f1  llAtLeastTwoChans                     
1000d94d  llCalcScaFactor                       
1000c1b5  llCheckForLstoDuringSL                
0001745f  llCheckRxBuffers                      
00018abf  llCheckWhiteListUsage                 
100072e9  llClearRfInts                         
000187db  llCombinePDU                          
0001dd48  llConfigTable                         
00018591  llConnCleanup                         
10008631  llConnTerminate                       
2000474c  llConnectionExt                       
20004cb0  llConns                               
10008741  llConvertCtrlProcTimeoutToEvent       
10008721  llConvertLstoToEvent                  
00017431  llCreateRxBuffer                      
10008985  llDataQEmpty                          
10008965  llDataQFull                           
00018669  llDequeueCtrlPkt                      
10008921  llDequeueDataQ                        
00017ed5  llDirAdv_TaskEnd                      
100072e5  llDisableRfInts                       
100072ed  llEnableRfInts                        
100080bd  llEnqueueCtrlPkt                      
10008889  llEnqueueDataQ                        
100088b5  llEnqueueHeadDataQ                    
1000d795  llEqAlreadyValidAddr                  
1000d6e5  llEqSynchWord                         
1000d709  llEqualBytes                          
10008719  llEventDelta                          
100086f1  llEventInRange                        
1000a939  llFindNextSecTask                     
1000a895  llFindStartType                       
00018779  llFragmentPDU                         
1000abed  llFreeTask                            
100086b9  llGenerateCRC                         
1000d695  llGenerateValidAccessAddr             
1000aca9  llGetActiveTasks                      
1000d4ad  llGetAdvChanPDU                       
1000ac3d  llGetCurrentTask                      
0001a67f  llGetCurrentTime                      
0001871f  llGetMinCI                            
000186d1  llGetNextConn                         
00018b13  llGetNextDataChan                     
1000ace1  llGetNumTasks                         
1000b009  llGetNumTxDataEntries                 
0001a771  llGetTask                             
0001a719  llGetTaskState                        
00018aab  llGetTxPower                          
1000d6b1  llGtSixConsecZerosOrOnes              
1000d731  llGtTwentyFourTransitions             
00018d19  llHaltRadio                           
00018e1f  llHardwareError                       
000184b1  llInitFeatureSet                      
0001a67d  llInitRAT                             
1000d761  llLtTwoChangesInLastSixBits           
100089f1  llMemCopyDst                          
100089d9  llMemCopySrc                          
1000afa1  llMoveTempTxDataEntries               
00018ce5  llOctets2Time                         
1000d6f5  llOneBitSynchWordDiffer               
1000adb1  llPatchCM0                            
10008665  llPendingUpdateParam                  
00018ad3  llProcessChanMap                      
100072f1  llProcessPostRfOps                    
00017119  llProcessSlaveControlPacket           
0001aca3  llProcessSlaveControlProcedures       
00018529  llProcessTxData                       
00017501  llRatChanCBack_A                      
1000ae41  llRatChanCBack_B                      
1000ae45  llRatChanCBack_C                      
1000ae49  llRatChanCBack_D                      
10008461  llReleaseAllConnId                    
10008429  llReleaseConnId                       
000186a5  llReplaceCtrlPkt                      
00017485  llReplaceRxBuffers                    
00018e1d  llResetRadio                          
000189f7  llRfInit                              
000189af  llRfSetup                             
00018d37  llRfStartFS                           
0001a7a1  llScheduleTask                        
1000a335  llScheduler                           
0001a68d  llSchedulerInit                       
00018bab  llSendReject                          
100072e1  llSetFreqTune                         
00018b5d  llSetNextDataChan                     
00018a63  llSetTxPower                          
100073e5  llSetupAdv                            
1000aeb1  llSetupAdvDataEntryQueue              
000173ad  llSetupConnRxDataEntryQueue           
10007aed  llSetupEncReq                         
10007b95  llSetupEncRsp                         
000184c9  llSetupFeatureSetRsp                  
100077b5  llSetupInit                           
1000ae95  llSetupInitDataEntryQueue             
0001a9f9  llSetupNextSlaveEvent                 
10007cfd  llSetupPauseEncReq                    
10007d55  llSetupPauseEncRsp                    
000174d1  llSetupRATChanCompare                 
10007df5  llSetupRejectInd                      
000174b7  llSetupRfHal                          
100075fd  llSetupScan                           
1000ae4d  llSetupScanDataEntryQueue             
10007c55  llSetupStartEncReq                    
10007ca9  llSetupStartEncRsp                    
00018bc9  llSetupTermInd                        
10008069  llSetupUnknownRsp                     
100079c9  llSetupUpdateParamReq                 
10007f29  llSetupVersionIndReq                  
0001a835  llSlave_TaskEnd                       
20004cb8  llState                               
1000d9e1  llTaskError                           
20004ef4  llTaskList                            
00018cb7  llTime2Octets                         
1000d8c9  llTimeCompare                         
1000d8f5  llTimeDelta                           
2000471c  llUserConfig                          
000182f9  llVerifyConnParamReqParams            
00018c3b  llWriteTxData                         
0001dd78  ll_buildRevision                      
10016551  mADD                                  
10015bd5  mINVK                                 
10015f81  mMULT                                 
10016749  mOUT                                  
10015a9d  mSET                                  
1001664d  mSUB                                  
20004cbc  maxNumConns                           
2000473a  maxNumTxDataBufs                      
20004738  maxPduSize                            
0001dd40  maxPktsPerEvt                         
20004c85  maxTxPwrForDTM                        
0001b455  memcpy                                
0001b4f9  memset                                
20004f14  mstCmd                                
20004f18  mstParam                              
20004cba  numComplPkts                          
20004c88  numComplPktsFlush                     
20004c87  numComplPktsLimit                     
20004f26  numHostBufs                           
20004c8b  numTxDataBufs                         
20004c86  onePktPerEvt                          
0001b823  osalAddTimer                          
0001d11d  osalAdjustTimer                       
0001b793  osalDeleteTimer                       
0001b779  osalFindTimer                         
0001d025  osalInitTasks                         
0001b89d  osalTimerInit                         
0001b8c5  osalTimerUpdate                       
0001c4b3  osal_CbTimerInit                      
0001c429  osal_CbTimerProcessEvent              
0001c5a3  osal_CbTimerStart                     
0001c4cb  osal_CbTimerStop                      
0001bbd9  osal_bm_adjust_header                 
0001bc01  osal_bm_alloc                         
0001bc33  osal_bm_free                          
0001c3f1  osal_buffer_uint32                    
0001c3c3  osal_build_uint32                     
0001bf65  osal_clear_event                      
0001c06b  osal_enroll_dispatchid                
0001c077  osal_enroll_senderid                  
20004820  osal_entity                           
2000482c  osal_eventloop_hook                   
0001b79b  osal_get_timeoutEx                    
0001c0d3  osal_init_system                      
0001c3a9  osal_isbufset                         
20004830  osal_last_timestamp                   
20004838  osal_max_msecs                        
0001cf1b  osal_mem_alloc                        
0001cf01  osal_mem_free                         
0001c385  osal_memcmp                           
0001bced  osal_memcpy                           
0001c363  osal_memdup                           
0001bce9  osal_memset                           
0001bc89  osal_msg_allocate                     
0001bcb3  osal_msg_deallocate                   
0001bd99  osal_msg_enqueue                      
0001bd05  osal_msg_extract                      
0001bdc9  osal_msg_push                         
0001bd39  osal_msg_receive                      
0001be41  osal_msg_send                         
0001b8a5  osal_next_timeout                     
0001ceeb  osal_pwrmgr_init                      
0001ce81  osal_pwrmgr_task_state                
20004828  osal_qHead                            
0001bba7  osal_rand                             
0001c347  osal_revmemcpy                        
0001c1e1  osal_run_system                       
0001bcad  osal_self                             
20004824  osal_semaphore                        
0001bfdb  osal_service_entry                    
0001bec7  osal_set_event                        
0001ce25  osal_snv_init                         
0001ce21  osal_snv_read                         
0001ce1d  osal_snv_write                        
0001b867  osal_start_reload_timer               
0001c329  osal_start_system                     
0001b7c3  osal_start_timerEx                    
0001b7f3  osal_stop_timerEx                     
0001c343  osal_strlen                           
20004834  osal_tickperiod                       
20004f60  outPointX                             
20004f64  outPointY                             
20004c6c  ownPublicAddr                         
20004c74  ownRandomAddr                         
20004c7c  ownSavedPublicAddr                    
20004620  pAuthLink                             
20004518  pBleEvtMask                           
2000461c  pEstLink                              
20004458  pGapAdvertState                       
20004454  pGapDiscReq                           
20004f00  pHciEvtMask                           
20004520  pHciEvtMask2                          
2000450c  pPairingParams                        
20004ffc  pSspAesEncrypt_Sw                     
20004c9c  peerInfo                              
000140c0  periConnParamUUID                     
000140b8  periPrivacyFlagUUID                   
20004464  pfnBondMgrCBs                         
20004624  pfnCentralConnCBs                     
2000464c  pfnPeripheralCBs                      
20004460  pfnPeripheralConnCBs                  
20004510  pfnResponderCBs                       
20004cbe  postRfOperations                      
00014088  primaryServiceUUID                    
200048d6  pwrmgr_attribute                      
200048d4  pwrmgr_initialized                    
20004fac  ratChanInfo                           
000140bc  reconnectAddrUUID                     
000140d0  reportRefUUID                         
20004657  reqTaskId                             
0001af79  rfCallback                            
20004c94  rfCfgAdiVal                           
0001dd28  rfCfgVal                              
20004740  rfCmdHandle                           
20004748  rfDrvTblPtr                           
20004528  rfEvent                               
20004739  rfFeModeBias                          
20004744  rfHandle                              
20004758  rfMode                                
20004790  rfObject                              
0001dd44  rfOpLoc                               
20004768  rfParams                              
20004774  rfSetup                               
1000dffc  romRev                                
20004551  rspBuf                                
20004cc0  rssiCorrection                        
20004f0c  rxDataQ                               
20004c8a  rxFifoFlowCtrl                        
20004e40  rxModemTestCmd                        
0001dd2c  rxPktSuffix                           
20004f10  rxRingBuf                             
20004ec4  rxTestOut                             
20004e84  rxTestParam                           
20004df8  scanCmd                               
200048fc  scanDataEntry                         
200049dc  scanDataQueue                         
20004d94  scanInfo                              
20004e10  scanOutput                            
20004d14  scanParam                             
0001dd34  scanPktSuffix                         
20004754  sclkSrc                               
0001408c  secondaryServiceUUID                  
0001206d  sendEstLinkEvent                      
000140a4  servCharCfgUUID                       
2000446c  serverInfoTbl                         
000140c4  serviceChangedUUID                    
0001cf75  setBleUserConfig                      
20004c89  slOverride                            
20004618  slaveConnHandle                       
20004610  slaveUpdateReq                        
20004c96  sleepDelay                            
20004de0  slvCmd                                
20004d38  slvParam                              
000160f7  smAuthReqToUint8                      
00016bc3  smDetermineKeySize                    
00016b93  smEndPairing                          
00016909  smGenerateConfirm                     
000168dd  smGeneratePairingReqRsp               
000160d1  smGenerateRandBuf                     
00016921  smGenerateRandMsg                     
000165e3  smLinkCheck                           
000167a1  smNextPairingState                    
00016ae7  smPairingSendEncInfo                  
00016b1f  smPairingSendIdentityAddrInfo         
00016b15  smPairingSendIdentityInfo             
00016aed  smPairingSendMasterID                 
00016b43  smPairingSendSingingInfo              
00016609  smProcessDataMsg                      
000166f5  smProcessEncryptChange                
0001686f  smProcessPairingReq                   
000165d3  smRegisterInitiator                   
000165db  smRegisterResponder                   
0001694b  smSavePairInfo                        
000166d9  smSendFailAndEnd                      
00016c51  smSendFailureEvt                      
000170cf  smSendSMMsg                           
000168c3  smStartEncryption                     
00015f17  smStartRspTimer                       
00015f33  smStopRspTimer                        
20004473  smTaskID                              
00016605  smTimedOut                            
0001611f  smUint8ToAuthReq                      
00015f63  sm_ah                                 
000167d1  sm_c1                                 
00015fc3  sm_c1new                              
00015f41  sm_d1                                 
00015f99  sm_dm                                 
00016091  sm_s1                                 
00016f9d  smpBuildEncInfo                       
0001701f  smpBuildIdentityAddrInfo              
0001700d  smpBuildIdentityInfo                  
00016fc5  smpBuildMasterID                      
00016f07  smpBuildPairingConfirm                
00016f67  smpBuildPairingFailed                 
00016f2f  smpBuildPairingRandom                 
00016d81  smpBuildPairingReq                    
00016d8f  smpBuildPairingReqRsp                 
00016d89  smpBuildPairingRsp                    
00017097  smpBuildSecurityReq                   
0001706f  smpBuildSigningInfo                   
00016faf  smpParseEncInfo                       
00017053  smpParseIdentityAddrInfo              
0001703d  smpParseIdentityInfo                  
00016fe9  smpParseMasterID                      
00016f19  smpParsePairingConfirm                
00016f7f  smpParsePairingFailed                 
00016f51  smpParsePairingRandom                 
00016e37  smpParsePairingReq                    
000170b3  smpParseSecurityReq                   
00017081  smpParseSigningInfo                   
10016d29  sspAesDecrypt_Sw                      
10016af5  sspAesEncryptBasic_Sw                 
10016a99  sspAesEncryptKeyExp_Sw                
10016979  sspAesEncrypt_Sw                      
10016985  sspKeyExpansion_Sw                    
10016975  ssp_KeyInit_Sw                        
0001d09b  stack_main                            
00011001  startup_entry                         
0001d14d  strlen                                
00017e90  supportedCmdsTable                    
20004cc4  taskEndAction                         
20004f0a  taskEndStatus                         
0001d618  tasksArr                              
2000458c  tasksEvents                           
20004548  timerHead                             
20004e28  trxTestCmd                            
20004f1c  txDataQ                               
20004d78  txModemTestCmd                        
0001dd1c  txPowerTable                          
0001dd20  txPwrTbl                              
20004f20  txTestOut                             
20004ea8  txTestParam                           
000140c8  validRangeUUID                        
20004c8c  verInfo                               
20004f40  win                                   
0001dd3c  wlSize                                
20004a8c  wlTable                               
20004b10  wlTableScan                           
20004f44  workzone                              
10015d19  zADD                                  
10015eb5  zADD32                                
10015de9  zMACC32                               
10015f0d  zMULT32                               
10015bcd  zSET                                  
10015d5d  zSUB                                  
10015e69  zSUB32                                


GLOBAL SYMBOLS: SORTED BY Symbol Address 

address   name                                  
-------   ----                                  
00005721  __checksum_value                      
0000e0ea  __checksum_value_CommonROM            
00011000  __TI_static_base__                    
00011001  startup_entry                         
0001104d  ATT_RegisterServer                    
00011053  ATT_ErrorRsp                          
00011065  ATT_ExchangeMTURsp                    
0001107d  ATT_FindInfoRsp                       
000110ad  ATT_FindByTypeValueRsp                
000110cd  ATT_ReadByTypeRsp                     
000110f9  ATT_ReadRsp                           
00011115  ATT_ReadBlobRsp                       
00011131  ATT_ReadMultiRsp                      
0001114f  ATT_ReadByGrpTypeRsp                  
00011171  ATT_WriteRsp                          
0001117d  ATT_PrepareWriteRsp                   
00011197  ATT_ExecuteWriteRsp                   
000111a3  ATT_HandleValueNoti                   
000111b9  ATT_HandleValueInd                    
00011239  ATT_ParsePacket                       
00011293  ATT_BuildErrorRsp                     
000112a5  ATT_ParseErrorRsp                     
000112c3  ATT_BuildExchangeMTUReq               
000112c5  ATT_ParseExchangeMTUReq               
000112cf  ATT_BuildExchangeMTURsp               
000112df  ATT_ParseExchangeMTURsp               
000112f5  ATT_BuildFindInfoReq                  
000112f7  ATT_ParseFindInfoReq                  
00011301  ATT_BuildFindInfoRsp                  
00011319  ATT_ParseFindInfoRsp                  
0001135b  ATT_BuildFindByTypeValueReq           
00011375  ATT_ParseFindByTypeValueReq           
000113b7  ATT_BuildFindByTypeValueRsp           
000113bf  ATT_ParseFindByTypeValueRsp           
000113d1  ATT_BuildReadByTypeReq                
00011401  ATT_ParseReadByTypeReq                
0001143d  ATT_BuildReadByTypeRsp                
0001143f  ATT_ParseReadByTypeRsp                
0001145f  ATT_BuildReadReq                      
00011461  ATT_ParseReadReq                      
0001147b  ATT_BuildReadRsp                      
0001147f  ATT_ParseReadRsp                      
00011481  ATT_ParseWriteReq                     
000114ab  ATT_BuildWriteReq                     
000114ad  ATT_ParseWriteRsp                     
000114b7  ATT_BuildReadBlobReq                  
000114d1  ATT_ParseReadBlobReq                  
000114f5  ATT_BuildReadBlobRsp                  
000114f9  ATT_ParseReadBlobRsp                  
00011507  ATT_BuildReadMultiReq                 
0001150f  ATT_ParseReadMultiReq                 
00011527  ATT_BuildReadMultiRsp                 
0001152b  ATT_ParseReadMultiRsp                 
0001152d  ATT_BuildReadByGrpTypeRsp             
0001153f  ATT_ParseReadByGrpTypeRsp             
00011569  ATT_BuildPrepareWriteReq              
0001156b  ATT_ParsePrepareWriteReq              
00011593  ATT_BuildPrepareWriteRsp              
000115b1  ATT_ParsePrepareWriteRsp              
000115e3  ATT_BuildExecuteWriteReq              
000115eb  ATT_ParseExecuteWriteReq              
000115fd  ATT_ParseExecuteWriteRsp              
00011607  ATT_BuildHandleValueInd               
0001161b  ATT_ParseHandleValueInd               
00011647  ATT_ParseHandleValueCfm               
00011651  attSendMsg                            
000116d5  ATT_CompareUUID                       
00011725  ATT_ConvertUUIDto128                  
0001174d  ATT_ConvertUUIDto16                   
0001178b  ATT_UpdateMTU                         
000117b5  ATT_GetMTU                            
000117d3  ATT_SetParamValue                     
000117d5  ATT_GetParamValue                     
000117d8  btBaseUUID                            
000117e9  GAP_SetParamValue                     
00011803  GAP_GetParamValue                     
00011813  GAP_ParamsInit                        
0001183b  GAP_SecParamsInit                     
00011855  GAP_PrivacyInit                       
00011877  GAP_GetIRK                            
0001187d  GAP_ConfigDeviceAddr                  
00011953  gapReadBD_ADDRStatus                  
0001198b  gapReadBufSizeCmdStatus               
000119cb  gapProcessNewAddr                     
000119f9  gapAddAddrAdj                         
00011a1f  gapHost2CtrlOwnAddrType               
00011a29  gapProcessRandomAddrComplete          
00011a89  gapGetSRK                             
00011a8f  gapGetSignCounter                     
00011a97  gapIncSignCounter                     
00011ab1  gapGetDevAddressMode                  
00011ab7  gapGetDevAddress                      
00011b29  GAP_ResolvePrivateAddr                
00011b2d  gapIsAdvertising                      
00011b31  gapIsScanning                         
00011b3b  gapValidADType                        
00011b4f  gapFindADType                         
00011ba1  gapSetState                           
00011bab  gapClrState                           
00011bd9  GAP_TerminateLinkReq                  
00011c53  GAP_UpdateLinkParamReq                
00011cc3  GAP_Signable                          
00011d0b  GAP_Authenticate                      
00011da5  GAP_TerminateAuth                     
00011dc3  GAP_PasskeyUpdate                     
00011df5  GAP_PasscodeUpdate                    
00011e41  GAP_Bond                              
00011eb7  gapUpdateConnSignCounter              
00011f07  gapSendSlaveSecurityReqEvent          
00011f49  gapProcessConnectionCompleteEvt       
00011ff5  gapProcessRemoteConnParamReqEvt       
0001200f  gapProcessDisconnectCompleteEvt       
0001206d  sendEstLinkEvent                      
000120f1  gapSendLinkUpdateEvent                
00012265  gapFreeEstLink                        
00012281  gapSendBondCompleteEvent              
000122d3  gapSendPairingReqEvent                
0001232d  gapPasskeyNeededCB                    
00012395  gapPairingCompleteCB                  
000124c5  gapRegisterPeripheralConn             
000124e9  GAP_MakeDiscoverable                  
00012581  GAP_UpdateAdvertisingData             
000125ef  GAP_EndDiscoverable                   
0001263b  GAP_SetAdvToken                       
00012699  GAP_GetAdvToken                       
000126b5  GAP_RemoveAdvToken                    
000126c9  GAP_UpdateAdvTokens                   
000126dd  GAP_PeriDevMgrInit                    
000127a1  gapSetAdvParams                       
00012813  gapSetAdvParamsStatus                 
00012835  gapWriteAdvEnableStatus               
000128cb  gapWriteAdvDataStatus                 
00012965  gapAddAdvToken                        
00012999  gapDeleteAdvToken                     
000129cb  gapFindAdvToken                       
000129e5  gapCalcAdvTokenDataLen                
00012a1b  gapBuildADTokens                      
00012b69  GAP_SendSlaveSecurityRequest          
00012ba3  GAP_PeriConnRegister                  
00012c79  GAP_RegisterForMsgs                   
00012c7f  GAP_Init                              
00012c95  GAP_ProcessEvent                      
00012d5b  GAP_NumActiveConnections              
00012edf  gapRegisterCentral                    
00012ee5  gapRegisterPeripheral                 
00012eeb  GAP_RegisterBondMgrCBs                
00012f11  GGS_SetParameter                      
00012f91  GGS_GetParameter                      
00012fc7  GGS_SetParamValue                     
00012fc9  GGS_GetParamValue                     
00012fcd  GGS_AddService                        
00012fe5  GGS_DelService                        
00012ff9  GGS_RegisterAppCBs                    
00013230  gapServiceCBs                         
0001323d  GATT_InitServer                       
000132a3  GATT_RegisterService                  
0001333b  GATT_DeregisterService                
0001337b  GATT_RegisterForReq                   
00013383  GATT_VerifyReadPermissions            
000133b7  GATT_VerifyWritePermissions           
00013409  GATT_ServiceChangedInd                
0001347b  GATT_FindHandleUUID                   
000134d7  GATT_FindHandle                       
0001351f  GATT_FindNextAttr                     
000135a3  GATT_ServiceNumAttrs                  
000135af  GATT_ServiceEncKeySize                
000135bf  GATT_SendRsp                          
00013673  GATT_Indication                       
000136e1  GATT_Notification                     
00013c0f  GATT_SetNextHandle                    
00013c11  GATT_GetNextHandle                    
00013c99  gattRegisterServer                    
00013c9f  gattRegisterClient                    
00013ca5  GATT_RegisterForMsgs                  
00013cab  GATT_SetHostToAppFlowCtrl             
00013cb7  GATT_AppCompletedMsg                  
00013cdf  GATT_Init                             
00013cfd  GATT_ProcessEvent                     
00013dcb  gattNotifyEvent                       
00013e21  gattStartTimer                        
00013e31  gattStopTimer                         
00013e49  GATT_NotifyEvent                      
00013e5d  GATT_UpdateMTU                        
00013e83  gattSendFlowCtrlEvt                   
00013eb5  gattGetPayload                        
00013f09  GATT_bm_alloc                         
00013f81  GATT_bm_free                          
00013f95  GATT_FindUUIDRec                      
00014080  gapServiceUUID                        
00014084  gattServiceUUID                       
00014088  primaryServiceUUID                    
0001408c  secondaryServiceUUID                  
00014090  includeUUID                           
00014094  characterUUID                         
00014098  charExtPropsUUID                      
0001409c  charUserDescUUID                      
000140a0  clientCharCfgUUID                     
000140a4  servCharCfgUUID                       
000140a8  charFormatUUID                        
000140ac  charAggFormatUUID                     
000140b0  deviceNameUUID                        
000140b4  appearanceUUID                        
000140b8  periPrivacyFlagUUID                   
000140bc  reconnectAddrUUID                     
000140c0  periConnParamUUID                     
000140c4  serviceChangedUUID                    
000140c8  validRangeUUID                        
000140cc  extReportRefUUID                      
000140d0  reportRefUUID                         
000140d3  _system_post_cinit                    
000140d5  GATTServApp_RegisterForMsg            
000140dd  GATTServApp_Init                      
0001412b  GATTServApp_ProcessEvent              
00014169  GATTServApp_RegisterService           
000141bd  GATTServApp_DeregisterService         
000141ff  GATTServApp_SetParameter              
0001425d  GATTServApp_GetParameter              
00014313  GATTServApp_AddService                
00014329  GATTServApp_DelService                
00014d81  GATTServApp_ReadAttr                  
00014f79  GATTServApp_WriteAttr                 
00015001  GATTServApp_SetParamValue             
00015003  GATTServApp_GetParamValue             
00015007  GATTServApp_UpdateCharCfg             
00015079  GATTServApp_SendCCCUpdatedEvent       
000150bd  L2CAP_RegisterApp                     
000150e7  L2CAP_SendData                        
00015149  L2CAP_CmdReject                       
00015157  L2CAP_InfoReq                         
0001516f  L2CAP_ConnParamUpdateReq              
000151a5  L2CAP_ConnParamUpdateRsp              
000151b7  L2CAP_SetControllerToHostFlowCtrl     
000151f1  L2CAP_HostNumCompletedPkts            
00015207  L2CAP_SetBufSize                      
00015213  L2CAP_GetMTU                          
00015239  L2CAP_SetUserConfig                   
0001523d  L2CAP_Init                            
0001529f  L2CAP_ProcessEvent                    
000153ab  L2CAP_RegisterFlowCtrlTask            
000154ed  l2capParseSignalHdr                   
00015501  l2capSendReq                          
00015569  l2capSendCmd                          
000155d7  l2capStoreFCPkt                       
000155fd  l2capSendPkt                          
0001566b  l2capEncapSendData                    
00015711  l2capParsePacket                      
00015767  L2CAP_BuildCmdReject                  
000157a5  l2capParseCmdReject                   
000157e5  l2capBuildParamUpdateReq              
00015811  L2CAP_ParseParamUpdateReq             
0001584b  L2CAP_BuildParamUpdateRsp             
0001584d  l2capParseParamUpdateRsp              
00015857  l2capBuildInfoReq                     
00015867  L2CAP_ParseInfoReq                    
0001587f  L2CAP_BuildInfoRsp                    
000158c5  l2capParseInfoRsp                     
00015923  l2capNotifyData                       
00015967  l2capNotifySignal                     
000159b5  l2capAllocConnChannel                 
00015a07  l2capFreeChannel                      
00015a15  l2capFindLocalId                      
00015a3f  l2capStartTimer                       
00015a53  l2capStopTimer                        
00015aaf  l2capHandleRxError                    
00015ab1  l2capDisconnectAllChannels            
00015b51  L2CAP_bm_alloc                        
00015b6b  L2CAP_SetParamValue                   
00015b6d  L2CAP_GetParamValue                   
00015b71  linkDB_Init                           
00015bbd  linkDB_Register                       
00015bdb  linkDB_Add                            
00015c41  linkDB_Remove                         
00015c75  linkDB_Update                         
00015c95  linkDB_GetInfo                        
00015cd5  linkDB_Find                           
00015cfd  linkDB_FindFirst                      
00015d2f  linkDB_State                          
00015d51  linkDB_Role                           
00015d5d  linkDB_NumActive                      
00015d83  linkDB_NumConns                       
00015d89  linkDB_UpdateMTU                      
00015da3  linkDB_MTU                            
00015daf  linkDB_Authen                         
00015dfb  linkDB_PerformFunc                    
00015e4d  SM_CalcRandomAddr                     
00015e85  SM_ResolveRandomAddrs                 
00015ed9  SM_Encrypt                            
00015f17  smStartRspTimer                       
00015f33  smStopRspTimer                        
00015f41  sm_d1                                 
00015f63  sm_ah                                 
00015f99  sm_dm                                 
00015fc3  sm_c1new                              
00016091  sm_s1                                 
000160d1  smGenerateRandBuf                     
000160f7  smAuthReqToUint8                      
0001611f  smUint8ToAuthReq                      
00016167  SM_GenerateAuthenSig                  
00016201  SM_VerifyAuthenSig                    
000164c9  SM_StartPairing                       
00016553  SM_PasskeyUpdate                      
000165d3  smRegisterInitiator                   
000165db  smRegisterResponder                   
000165e3  smLinkCheck                           
00016605  smTimedOut                            
00016609  smProcessDataMsg                      
000166d9  smSendFailAndEnd                      
000166f5  smProcessEncryptChange                
000167a1  smNextPairingState                    
000167d1  sm_c1                                 
0001686f  smProcessPairingReq                   
000168c3  smStartEncryption                     
000168dd  smGeneratePairingReqRsp               
00016909  smGenerateConfirm                     
00016921  smGenerateRandMsg                     
0001694b  smSavePairInfo                        
00016ae7  smPairingSendEncInfo                  
00016aed  smPairingSendMasterID                 
00016b15  smPairingSendIdentityInfo             
00016b1f  smPairingSendIdentityAddrInfo         
00016b43  smPairingSendSingingInfo              
00016b93  smEndPairing                          
00016bc3  smDetermineKeySize                    
00016c51  smSendFailureEvt                      
00016c99  SM_Init                               
00016cb5  SM_ProcessEvent                       
00016d81  smpBuildPairingReq                    
00016d89  smpBuildPairingRsp                    
00016d8f  smpBuildPairingReqRsp                 
00016e37  smpParsePairingReq                    
00016f07  smpBuildPairingConfirm                
00016f19  smpParsePairingConfirm                
00016f2f  smpBuildPairingRandom                 
00016f51  smpParsePairingRandom                 
00016f67  smpBuildPairingFailed                 
00016f7f  smpParsePairingFailed                 
00016f9d  smpBuildEncInfo                       
00016faf  smpParseEncInfo                       
00016fc5  smpBuildMasterID                      
00016fe9  smpParseMasterID                      
0001700d  smpBuildIdentityInfo                  
0001701f  smpBuildIdentityAddrInfo              
0001703d  smpParseIdentityInfo                  
00017053  smpParseIdentityAddrInfo              
0001706f  smpBuildSigningInfo                   
00017081  smpParseSigningInfo                   
00017097  smpBuildSecurityReq                   
000170b3  smpParseSecurityReq                   
000170cf  smSendSMMsg                           
00017119  llProcessSlaveControlPacket           
000173ad  llSetupConnRxDataEntryQueue           
00017431  llCreateRxBuffer                      
0001745f  llCheckRxBuffers                      
00017485  llReplaceRxBuffers                    
000174b7  llSetupRfHal                          
000174d1  llSetupRATChanCompare                 
00017501  llRatChanCBack_A                      
00017503  RFHAL_InitRfHal                       
00017565  RFHAL_AddTxDataEntry                  
000175fd  LL_RxDataCompleteCback                
000176a5  hciInitEventMasks                     
000176e9  LL_ConnParamUpdateCback               
0001777b  LL_ReadRemoteUsedFeaturesCompleteCback
000177e7  HCI_NumOfCompletedPacketsEvent        
000178c7  LL_AuthPayloadTimeoutExpiredCback     
0001793b  LL_EnhancedConnectionCompleteCback    
00017b55  HCI_VendorSpecifcCommandCompleteEvent 
00017bd1  HCI_ValidConnTimeParams               
00017c0d  HCI_ResetCmd                          
00017c2f  HCI_ReadLocalSupportedCommandsCmd     
00017c43  HCI_EXT_GetConnInfoCmd                
00017cd1  HCI_LE_ReadBufSizeCmd                 
00017cff  HCI_LE_RemoteConnParamReqReplyCmd     
00017d03  HCI_LE_ReadRemoteUsedFeaturesCmd      
00017d2d  HCI_LE_TransmitterTestCmd             
00017d3f  HCI_LE_ReceiverTestCmd                
00017d51  HCI_SetEventMaskPage2Cmd              
00017d79  HCI_LE_ConnUpdateCmd                  
00017d89  HCI_EXT_ResetSystemCmd                
00017daf  HCI_EXT_DelaySleepCmd                 
00017dd3  HCI_EXT_ConnEventNoticeCmd            
00017dd7  HCI_LE_SetEventMaskCmd                
00017e0d  HCI_ReadLocalVersionInfoCmd           
00017e65  HCI_ReadRssiCmd                       
00017e90  supportedCmdsTable                    
00017ed5  llDirAdv_TaskEnd                      
00017f37  llAdv_TaskEnd                         
00017ff9  llAdv_TaskConnect                     
000182f9  llVerifyConnParamReqParams            
00018379  llAllocConnId                         
000184b1  llInitFeatureSet                      
000184c9  llSetupFeatureSetRsp                  
00018529  llProcessTxData                       
00018591  llConnCleanup                         
00018669  llDequeueCtrlPkt                      
000186a5  llReplaceCtrlPkt                      
000186d1  llGetNextConn                         
0001871f  llGetMinCI                            
00018779  llFragmentPDU                         
000187db  llCombinePDU                          
00018903  llAlignToNextEvent                    
000189af  llRfSetup                             
000189f7  llRfInit                              
00018a63  llSetTxPower                          
00018aab  llGetTxPower                          
00018abf  llCheckWhiteListUsage                 
00018ad3  llProcessChanMap                      
00018b13  llGetNextDataChan                     
00018b5d  llSetNextDataChan                     
00018bab  llSendReject                          
00018bc9  llSetupTermInd                        
00018c3b  llWriteTxData                         
00018cb7  llTime2Octets                         
00018ce5  llOctets2Time                         
00018d19  llHaltRadio                           
00018d37  llRfStartFS                           
00018e1d  llResetRadio                          
00018e1f  llHardwareError                       
00018e51  LL_ENC_Encrypt                        
00018ebf  LL_ENC_Decrypt                        
00019635  LL_Init                               
0001989f  LL_ProcessEvent                       
000199d3  LL_Reset                              
00019acb  LL_EXT_GetConnInfo                    
00019b77  LL_EncLtkReply                        
00019bb9  LL_EncLtkNegReply                     
00019bf3  LL_ReadRemoteUsedFeatures             
00019c41  LL_EXT_SetLocalSupportedFeatures      
00019c81  LL_EXT_SetTxPower                     
00019cb5  LL_EXT_SetMaxDtmTxPower               
00019ccf  LL_ReadTxPowerLevel                   
00019d0d  LL_TxData                             
00019dbd  LL_EXT_ModemHopTestTx                 
00019e5d  LL_EXT_ModemTestTx                    
00019ee1  LL_EXT_ModemTestRx                    
00019f77  LL_EXT_EndModemTest                   
00019f9d  LL_DirectTestTxTest                   
0001a119  LL_DirectTestRxTest                   
0001a219  LL_DirectTestEnd                      
0001a2a5  LL_SetAdvParam                        
0001a3b9  LL_SetAdvControl                      
0001a4bb  LL_ReadSupportedStates                
0001a4d7  LL_GetNumActiveConns                  
0001a4e3  LL_ReadRssi                           
0001a549  LL_EXT_ConnEventNotice                
0001a567  LL_EXT_NumComplPktsLimit              
0001a58d  LL_EXT_BuildRevision                  
0001a5bd  LL_EXT_DisconnectImmed                
0001a67d  llInitRAT                             
0001a67f  llGetCurrentTime                      
0001a68d  llSchedulerInit                       
0001a6bf  llAllocTask                           
0001a719  llGetTaskState                        
0001a73b  llActiveTask                          
0001a771  llGetTask                             
0001a7a1  llScheduleTask                        
0001a835  llSlave_TaskEnd                       
0001a9f9  llSetupNextSlaveEvent                 
0001aca3  llProcessSlaveControlProcedures       
0001af31  LL_PM_GetRfCoreState                  
0001af35  LL_PM_Enter_AES                       
0001af4b  LL_PM_Exit_AES                        
0001af75  LL_PM_PowerOffRfCore                  
0001af79  rfCallback                            
0001afa5  LL_DoorbellErrorCback                 
0001afb5  LL_LastCmdDoneCback                   
0001b165  LL_TxDoneCback                        
0001b179  LL_TxEntryDoneCback                   
0001b193  LL_RxIgnoredCback                     
0001b195  LL_RxEntryDoneCback                   
0001b325  HCI_Init                              
0001b357  HCI_ProcessEvent                      
0001b393  HCI_TestAppTaskRegister               
0001b399  HCI_GAPTaskRegister                   
0001b39f  HCI_L2CAPTaskRegister                 
0001b3a5  HCI_SMPTaskRegister                   
0001b3ab  HCI_ExtTaskRegister                   
0001b3cd  __TI_auto_init                        
0001b43d  __aeabi_lmul                          
0001b455  __aeabi_memcpy                        
0001b455  __aeabi_memcpy4                       
0001b455  __aeabi_memcpy8                       
0001b455  memcpy                                
0001b4f1  __aeabi_memclr                        
0001b4f1  __aeabi_memclr4                       
0001b4f1  __aeabi_memclr8                       
0001b4f3  __aeabi_memset                        
0001b4f3  __aeabi_memset4                       
0001b4f3  __aeabi_memset8                       
0001b4f9  memset                                
0001b56b  __aeabi_uldivmod                      
0001b75f  NOROM_CPUcpsie                        
0001b76b  NOROM_CPUcpsid                        
0001b779  osalFindTimer                         
0001b793  osalDeleteTimer                       
0001b79b  osal_get_timeoutEx                    
0001b7c3  osal_start_timerEx                    
0001b7f3  osal_stop_timerEx                     
0001b823  osalAddTimer                          
0001b867  osal_start_reload_timer               
0001b89d  osalTimerInit                         
0001b8a5  osal_next_timeout                     
0001b8c5  osalTimerUpdate                       
0001b9c1  halAssertSpinlock                     
0001b9c3  halAssertHandler                      
0001b9c5  halAssertHandlerExt                   
0001b9db  halAssertInit                         
0001b9f5  NOROM_TRNGConfigure                   
0001ba19  HalTRNG_InitTRNG                      
0001ba35  HalTRNG_GetTRNG                       
0001ba79  NOROM_IntDisable                      
0001bae1  NOROM_IntEnable                       
0001bb5d  ROM_Spinlock                          
0001bb73  ROM_Init                              
0001bba5  Onboard_soft_reset                    
0001bba7  Onboard_rand                          
0001bba7  osal_rand                             
0001bbd9  osal_bm_adjust_header                 
0001bc01  osal_bm_alloc                         
0001bc33  osal_bm_free                          
0001bc89  osal_msg_allocate                     
0001bcad  osal_self                             
0001bcb3  osal_msg_deallocate                   
0001bce9  osal_memset                           
0001bced  osal_memcpy                           
0001bd05  osal_msg_extract                      
0001bd39  osal_msg_receive                      
0001bd99  osal_msg_enqueue                      
0001bdc9  osal_msg_push                         
0001be41  osal_msg_send                         
0001bec7  osal_set_event                        
0001bf65  osal_clear_event                      
0001bfdb  osal_service_entry                    
0001c06b  osal_enroll_dispatchid                
0001c077  osal_enroll_senderid                  
0001c0d3  osal_init_system                      
0001c1e1  osal_run_system                       
0001c329  osal_start_system                     
0001c343  osal_strlen                           
0001c347  osal_revmemcpy                        
0001c363  osal_memdup                           
0001c385  osal_memcmp                           
0001c3a9  osal_isbufset                         
0001c3c3  osal_build_uint32                     
0001c3f1  osal_buffer_uint32                    
0001c429  osal_CbTimerProcessEvent              
0001c4b3  osal_CbTimerInit                      
0001c4cb  osal_CbTimerStop                      
0001c5a3  osal_CbTimerStart                     
0001cd67  bleDispatch_ProcessEvent              
0001cdc7  bleDispatch_BMAlloc                   
0001cdf3  bleDispatch_BMFree                    
0001ce0b  bleDispatch_Init                      
0001ce1d  osal_snv_write                        
0001ce21  osal_snv_read                         
0001ce25  osal_snv_init                         
0001ce2b  GAP_DeviceInit                        
0001ce81  osal_pwrmgr_task_state                
0001ceeb  osal_pwrmgr_init                      
0001cf01  osal_mem_free                         
0001cf1b  osal_mem_alloc                        
0001cf45  CommonROM_Init                        
0001cf75  setBleUserConfig                      
0001d025  osalInitTasks                         
0001d09b  stack_main                            
0001d11d  osalAdjustTimer                       
0001d14d  strlen                                
0001d161  copy_in                               
0001d217  __TI_decompress_rle24                 
0001d21d  __TI_decompress_none                  
0001d24f  GATTServApp_ReadCharCfg               
0001d25f  GATTServApp_InitCharCfg               
0001d618  tasksArr                              
0001d63c  R2F_Flash_JT_CommonROM                
0001d654  R2R_Flash_JT_CommonROM                
0001d748  R2F_Flash_JT                          
0001d7f0  R2R_Flash_JT                          
0001dd1c  txPowerTable                          
0001dd20  txPwrTbl                              
0001dd28  rfCfgVal                              
0001dd2c  rxPktSuffix                           
0001dd30  advPktSuffix                          
0001dd34  scanPktSuffix                         
0001dd38  initPktSuffix                         
0001dd3c  wlSize                                
0001dd40  maxPktsPerEvt                         
0001dd44  rfOpLoc                               
0001dd48  llConfigTable                         
0001dd78  ll_buildRevision                      
0001dd80  __TI_Handler_Table_Base               
0001dd88  __TI_CINIT_Base                       
0001dd88  __TI_Handler_Table_Limit              
0001dd98  __TI_CINIT_Limit                      
10005000  A1_rw_1                               
10005000  __checksum_begin                      
10005001  ROM_BASE_ADDR                         
10005004  P1_ro_1                               
10005549  LL_TX_bm_alloc                        
1000556d  LL_RX_bm_alloc                        
100056c9  LL_ReadBDADDR                         
100056e9  LL_SetRandomAddress                   
10005719  LL_ClearWhiteList                     
10005739  LL_AddWhiteListDevice                 
10005765  LL_RemoveWhiteListDevice              
100057a1  LL_ReadWlSize                         
100057b9  LL_NumEmptyWlEntries                  
100057d5  LL_Encrypt                            
100057f5  LL_Rand                               
10005801  LL_PseudoRand                         
10005879  LL_ReadLocalSupportedFeatures         
1000589d  LL_ReadLocalVersionInfo               
100058d5  LL_CtrlToHostFlowControl              
100058e9  LL_ReadRemoteVersionInfo              
100059a1  LL_ReadChanMap                        
10005a39  LL_Disconnect                         
10005f89  LL_SetAdvData                         
10006105  LL_ReadAdvChanTxPower                 
1000612d  LL_SetScanRspData                     
1000678d  LL_ConnActive                         
10006ad9  LL_EXT_SetRxGain                      
10006b59  LL_EXT_OnePacketPerEvent              
10006b7d  LL_EXT_ClkDivOnHalt                   
10006b81  LL_EXT_DeclareNvUsage                 
10006b85  LL_EXT_Decrypt                        
10006bc5  LL_EXT_SetFastTxResponseTime          
10006bdd  LL_EXT_SetSlaveLatencyOverride        
10006e01  LL_EXT_SetBDADDR                      
10006e85  LL_EXT_SetSCA                         
10006ef9  LL_EXT_SetFreqTune                    
10006efd  LL_EXT_SaveFreqTune                   
10006f49  LL_EXT_MapPmIoPort                    
10006f99  LL_EXT_PacketErrorRate                
10006fed  LL_EXT_PERbyChan                      
1000701d  LL_EXT_ExtendRfRange                  
10007021  LL_EXT_HaltDuringRf                   
10007025  LL_EXT_AdvEventNotice                 
100070a1  LL_EXT_DelaySleep                     
100070d5  LL_EXT_ResetSystem                    
10007109  LL_EXT_OverlappedProcessing           
100072e1  llSetFreqTune                         
100072e5  llDisableRfInts                       
100072e9  llClearRfInts                         
100072ed  llEnableRfInts                        
100072f1  llProcessPostRfOps                    
100073e5  llSetupAdv                            
100075fd  llSetupScan                           
100077b5  llSetupInit                           
100079c9  llSetupUpdateParamReq                 
10007aed  llSetupEncReq                         
10007b95  llSetupEncRsp                         
10007c55  llSetupStartEncReq                    
10007ca9  llSetupStartEncRsp                    
10007cfd  llSetupPauseEncReq                    
10007d55  llSetupPauseEncRsp                    
10007df5  llSetupRejectInd                      
10007f29  llSetupVersionIndReq                  
10008069  llSetupUnknownRsp                     
100080bd  llEnqueueCtrlPkt                      
100082f1  llAtLeastTwoChans                     
10008429  llReleaseConnId                       
10008461  llReleaseAllConnId                    
10008631  llConnTerminate                       
10008665  llPendingUpdateParam                  
100086b9  llGenerateCRC                         
100086f1  llEventInRange                        
10008719  llEventDelta                          
10008721  llConvertLstoToEvent                  
10008741  llConvertCtrlProcTimeoutToEvent       
10008889  llEnqueueDataQ                        
100088b5  llEnqueueHeadDataQ                    
10008921  llDequeueDataQ                        
10008965  llDataQFull                           
10008985  llDataQEmpty                          
100089d9  llMemCopySrc                          
100089f1  llMemCopyDst                          
10008a2d  HCI_DataBufferOverflowEvent           
10008add  HCI_CommandCompleteEvent              
10008ba1  HCI_CommandStatusEvent                
10008bf5  HCI_HardwareErrorEvent                
10008c59  HCI_SendCommandStatusEvent            
10008c81  HCI_SendCommandCompleteEvent          
10008d31  HCI_SendControllerToHostEvent         
10008d81  LL_AdvReportCback                     
10008ead  LL_ConnectionCompleteCback            
10009005  LL_DisconnectCback                    
100091e1  LL_ReadRemoteVersionInfoCback         
1000925d  LL_EncLtkReqCback                     
1000933d  LL_EncChangeCback                     
100093dd  LL_EncKeyRefreshCback                 
10009471  LL_DirectTestEndDoneCback             
100094a1  HCI_bm_alloc                          
100094e9  HCI_SendDataPkt                       
10009525  HCI_DisconnectCmd                     
10009541  HCI_ReadRemoteVersionInfoCmd          
10009571  HCI_SetEventMaskCmd                   
100095d1  HCI_ReadTransmitPowerLevelCmd         
100095f5  HCI_SetControllerToHostFlowCtrlCmd    
10009631  HCI_HostBufferSizeCmd                 
1000965d  HCI_HostNumCompletedPktCmd            
1000973d  HCI_ReadLocalSupportedFeaturesCmd     
10009765  HCI_ReadBDADDRCmd                     
10009829  HCI_LE_ReadLocalSupportedFeaturesCmd  
10009849  HCI_LE_SetRandomAddressCmd            
1000986d  HCI_LE_SetAdvParamCmd                 
100098a1  HCI_LE_SetAdvDataCmd                  
100098bd  HCI_LE_SetScanRspDataCmd              
100098d9  HCI_LE_SetAdvEnableCmd                
100098f5  HCI_LE_ReadAdvChanTxPowerCmd          
10009915  HCI_LE_SetScanParamCmd                
10009941  HCI_LE_SetScanEnableCmd               
1000995d  HCI_LE_CreateConnCmd                  
1000999d  HCI_LE_CreateConnCancelCmd            
100099c9  HCI_LE_ReadWhiteListSizeCmd           
100099f9  HCI_LE_ClearWhiteListCmd              
10009a15  HCI_LE_AddWhiteListCmd                
10009a31  HCI_LE_RemoveWhiteListCmd             
10009a85  HCI_LE_SetHostChanClassificationCmd   
10009aa1  HCI_LE_ReadChannelMapCmd              
10009af5  HCI_LE_EncryptCmd                     
10009b51  HCI_LE_RandCmd                        
10009ba9  HCI_LE_StartEncyptCmd                 
10009bc5  HCI_LE_LtkReqReplyCmd                 
10009be1  HCI_LE_LtkReqNegReplyCmd              
10009c15  HCI_LE_ReadSupportedStatesCmd         
10009c8d  HCI_LE_TestEndCmd                     
10009cd5  HCI_EXT_SetRxGainCmd                  
10009d09  HCI_EXT_SetTxPowerCmd                 
10009d45  HCI_EXT_OnePktPerEvtCmd               
10009d79  HCI_EXT_ClkDivOnHaltCmd               
10009dad  HCI_EXT_DeclareNvUsageCmd             
10009dd1  HCI_EXT_DecryptCmd                    
10009e2d  HCI_EXT_SetLocalSupportedFeaturesCmd  
10009e4d  HCI_EXT_SetFastTxResponseTimeCmd      
10009e6d  HCI_EXT_SetSlaveLatencyOverrideCmd    
10009e8d  HCI_EXT_ModemTestTxCmd                
10009ead  HCI_EXT_ModemHopTestTxCmd             
10009ecd  HCI_EXT_ModemTestRxCmd                
10009eed  HCI_EXT_EndModemTestCmd               
10009f0d  HCI_EXT_SetBDADDRCmd                  
10009f49  HCI_EXT_SetSCACmd                     
10009f69  HCI_EXT_EnablePTMCmd                  
10009f81  HCI_EXT_SetFreqTuneCmd                
10009fb1  HCI_EXT_SaveFreqTuneCmd               
10009fd1  HCI_EXT_SetMaxDtmTxPowerCmd           
10009ff1  HCI_EXT_MapPmIoPortCmd                
1000a011  HCI_EXT_DisconnectImmedCmd            
1000a031  HCI_EXT_PacketErrorRateCmd            
1000a075  HCI_EXT_PERbyChanCmd                  
1000a095  HCI_EXT_ExtendRfRangeCmd              
1000a0d1  HCI_EXT_HaltDuringRfCmd               
1000a0f1  HCI_EXT_AdvEventNoticeCmd             
1000a109  HCI_EXT_BuildRevisionCmd              
1000a195  HCI_EXT_OverlappedProcessingCmd       
1000a1b5  HCI_EXT_NumComplPktsLimitCmd          
1000a1d5  LL_RandCback                          
1000a201  LL_EXT_SetRxGainCback                 
1000a211  LL_EXT_SetTxPowerCback                
1000a259  LL_EXT_PacketErrorRateCback           
1000a2ad  LL_EXT_ExtendRfRangeCback             
1000a335  llScheduler                           
1000a895  llFindStartType                       
1000a939  llFindNextSecTask                     
1000abed  llFreeTask                            
1000ac3d  llGetCurrentTask                      
1000aca9  llGetActiveTasks                      
1000ace1  llGetNumTasks                         
1000adb1  llPatchCM0                            
1000ae41  llRatChanCBack_B                      
1000ae45  llRatChanCBack_C                      
1000ae49  llRatChanCBack_D                      
1000ae4d  llSetupScanDataEntryQueue             
1000ae95  llSetupInitDataEntryQueue             
1000aeb1  llSetupAdvDataEntryQueue              
1000afa1  llMoveTempTxDataEntries               
1000b009  llGetNumTxDataEntries                 
1000b4c9  LL_ENC_Init                           
1000b4ed  LL_ENC_ReverseBytes                   
1000b50d  LL_ENC_GeneratePseudoRandNum          
1000b51d  LL_ENC_GenerateTrueRandNum            
1000b541  LL_ENC_GenDeviceSKD                   
1000b555  LL_ENC_GenDeviceIV                    
1000b569  LL_ENC_GenerateNonce                  
1000b58d  LL_ENC_LoadKey                        
1000b5f5  LL_ENC_AES128_Encrypt                 
1000b639  LL_ENC_AES128_Decrypt                 
1000b721  LL_ENC_EncryptMsg                     
1000b851  LL_ENC_DecryptMsg                     
1000c1b5  llCheckForLstoDuringSL                
1000cd51  llAdv_TaskAbort                       
1000d189  WL_Init                               
1000d1ad  WL_Clear                              
1000d1f5  WL_ClearEntry                         
1000d229  WL_GetSize                            
1000d23d  WL_GetNumFreeEntries                  
1000d26d  WL_FindEntry                          
1000d2d9  WL_AddEntry                           
1000d36d  WL_RemoveEntry                        
1000d3dd  WL_SetWlIgnore                        
1000d425  WL_ClearIgnoreList                    
1000d4ad  llGetAdvChanPDU                       
1000d695  llGenerateValidAccessAddr             
1000d6b1  llGtSixConsecZerosOrOnes              
1000d6e5  llEqSynchWord                         
1000d6f5  llOneBitSynchWordDiffer               
1000d709  llEqualBytes                          
1000d731  llGtTwentyFourTransitions             
1000d761  llLtTwoChangesInLastSixBits           
1000d795  llEqAlreadyValidAddr                  
1000d7cd  HCI_ReverseBytes                      
1000d8c9  llTimeCompare                         
1000d8f5  llTimeDelta                           
1000d94d  llCalcScaFactor                       
1000d964  SCA                                   
1000d9b0  advChan                               
1000d9b4  advEvt2Cmd                            
1000d9c0  advEvt2State                          
1000d9e1  llTaskError                           
1000d9ec  Fill1_1                               
1000dffc  A3_rw_1                               
1000dffc  romRev                                
1000dffd  __checksum_end                        
1000dffe  A2_rw_1                               
1000dffe  P1_ro_2_1                             
1000dffe  __checksum                            
10014c00  A1_rw                                 
10014c00  __checksum_begin_CommonROM            
10014c01  COMMON_ROM_BASE_ADDR                  
10014c04  P1_ro                                 
10014c05  SCALARMUL_init                        
10014ced  SCALARMUL_core                        
10015019  SCALARMUL_final                       
100150e5  SCALARMUL                             
10015101  SAVEPOINT                             
10015141  GETBIT                                
10015155  GETDIGIT                              
100151a5  GETDIGITL2R                           
10015215  SelectReg                             
10015229  ATOMICPATTERN                         
100154f5  JACADD                                
1001568d  INVERT                                
10015821  SQUAREMULTIPLYWORD                    
1001588c  LUTOPCODE                             
10015894  LUTOPSIGN                             
100158ac  LUTC                                  
100158c4  LUTSE                                 
100158dc  LUTINCI                               
100158f4  LUTJ                                  
1001596c  LUTSTATE                              
100159a9  IMPORTLENGTH                          
100159ad  IMPORTMODULUS                         
100159d1  IMPORTOPERAND                         
10015a11  EXPORTOPERAND                         
10015a35  IMPORTDATA                            
10015a51  SETOPERAND                            
10015a6d  COPY                                  
10015a85  ZERO                                  
10015a91  SETWORD                               
10015a9d  mSET                                  
10015bcd  zSET                                  
10015bd5  mINVK                                 
10015d19  zADD                                  
10015d5d  zSUB                                  
10015de9  zMACC32                               
10015e69  zSUB32                                
10015eb5  zADD32                                
10015f0d  zMULT32                               
10015f81  mMULT                                 
10016551  mADD                                  
1001664d  mSUB                                  
10016749  mOUT                                  
10016975  ssp_KeyInit_Sw                        
10016979  sspAesEncrypt_Sw                      
10016985  sspKeyExpansion_Sw                    
10016a99  sspAesEncryptKeyExp_Sw                
10016af5  sspAesEncryptBasic_Sw                 
10016b79  RoundKey_Sw                           
10016c29  AddRoundKeySubBytes_Sw                
10016c45  ShiftRows_Sw                          
10016c79  MixColumns_Sw                         
10016d05  FFMult_Sw                             
10016d29  sspAesDecrypt_Sw                      
10016da1  InvAddRoundKey_Sw                     
10016dc9  InvRoundKey_Sw                        
10016e8d  InvSubBytes_Sw                        
10016ea1  InvShiftRows_Sw                       
10016ed5  InvMixColumns_Sw                      
10016f58  FFMult2                               
10017058  FFMult3                               
10017158  RCon                                  
10017164  Sbox                                  
10017264  InvSbox                               
10017365  SSP_CCM_Auth_Sw                       
100174fd  SSP_CCM_Encrypt_Sw                    
100175ed  SSP_CTR_Encrypt_Sw                    
1001767d  SSP_CCM_Decrypt_Sw                    
10017771  SSP_CTR_Decrypt_Sw                    
10017839  SSP_CCM_InvAuth_Sw                    
10017895  SSP_CCM_Auth_Encrypt_Sw               
100178f5  SSP_CCM_InvAuth_Decrypt_Sw            
10017959  ECC_allocWorkzone                     
10017961  ECC_setWin                            
10017969  ECDSA_sign                            
10017b01  ECDSA_verif                           
10017dbd  ECC_keyGen                            
10017ded  ECDH_commonKey                        
10017e39  SHA256_updateW                        
10017e75  SHA256_round                          
10017ef1  SHA256_nextState                      
10017f49  SHA256_saveBuffer                     
10017ffd  SHA256_init                           
10018019  SHA256_process                        
10018089  SHA256_final                          
10018129  SHA256_full                           
10018315  RFHAL_AllocRatChan                    
1001833d  RFHAL_FreeRatChan                     
10018369  RFHAL_MapRatChansToInt                
10018391  RFHAL_RegisterRatChanCallback         
100183b9  RFHAL_InitDataQueue                   
100183c5  RFHAL_QueueRFDataEntries              
10018485  RFHAL_FreeNextTxDataEntry             
100184a9  RFHAL_AllocDataEntryQueue             
100184c5  RFHAL_FreeDataEntryQueue              
100184cd  RFHAL_GetNextDataEntry                
100184d1  RFHAL_GetTempDataEntry                
100184d5  RFHAL_NextDataEntryDone               
100184f9  RFHAL_AllocDataEntry                  
10018549  RFHAL_FreeDataEntry                   
10018551  RFHAL_BuildRingBuffer                 
100185e1  RFHAL_BuildDataEntryRingBuffer        
10018669  RFHAL_BuildLinkedBuffer               
10018a19  AesCcm_authEncrypt_Sw                 
10018a35  AesCcm_decryptAuth_Sw                 
10018a99  Aes_encrypt_Sw                        
10018ac5  Aes_decrypt_Sw                        
10018b09  AesCcm_getNumBlocks_Sw                
10018b0c  NIST256_p                             
10018b30  NIST256_r                             
10018b54  NIST256_a                             
10018b78  NIST256_b                             
10018b9c  NIST256_Gx                            
10018bc0  NIST256_Gy                            
10018ced  __exit                                
10018d6c  Fill1                                 
10019ffc  A3_rw                                 
10019ffd  __checksum_end_CommonROM              
10019ffe  A2_rw                                 
10019ffe  P1_ro_2                               
10019ffe  __checksum_CommonROM                  
20004454  pGapDiscReq                           
20004458  pGapAdvertState                       
2000445c  gapState                              
20004460  pfnPeripheralConnCBs                  
20004464  pfnBondMgrCBs                         
2000446c  serverInfoTbl                         
20004470  gattNumConns                          
20004471  gattTaskID                            
20004473  smTaskID                              
20004494  GATTServApp_TaskID                    
200044a4  l2capFixedChannels                    
200044d4  linkDBNumConns                        
2000450c  pPairingParams                        
20004510  pfnResponderCBs                       
20004518  pBleEvtMask                           
20004520  pHciEvtMask2                          
20004528  rfEvent                               
20004532  hciTaskID                             
20004533  hciTestTaskID                         
20004534  hciGapTaskID                          
20004535  hciL2capTaskID                        
20004536  hciSmpTaskID                          
20004537  hciExtTaskID                          
2000453c  ICall_dispatcher                      
20004540  ICall_enterCriticalSection            
20004544  ICall_leaveCriticalSection            
20004548  timerHead                             
20004550  bleDispatch_TaskID                    
20004551  rspBuf                                
2000458c  tasksEvents                           
200045ac  gapAppTaskID                          
200045ad  gapProfileRole                        
200045ae  gapDeviceAddrMode                     
200045af  gapAutoAdvPrivateAddrChange           
200045b0  gapPrivateAddrChangeTimeout           
20004610  slaveUpdateReq                        
20004618  slaveConnHandle                       
2000461c  pEstLink                              
20004620  pAuthLink                             
20004624  pfnCentralConnCBs                     
20004648  gapTaskID                             
20004649  gapUnwantedTaskID                     
2000464c  pfnPeripheralCBs                      
20004657  reqTaskId                             
200046f4  gattAppTaskID                         
200046f5  appTaskID                             
200046f6  l2capMtuSize                          
20004708  l2capTaskID                           
20004709  l2capNumChannels                      
2000470a  l2capNumDataPkts                      
2000470c  l2capChannels                         
2000471c  llUserConfig                          
20004738  maxPduSize                            
20004739  rfFeModeBias                          
2000473a  maxNumTxDataBufs                      
2000473c  advInfoExt                            
20004740  rfCmdHandle                           
20004744  rfHandle                              
20004748  rfDrvTblPtr                           
2000474c  llConnectionExt                       
20004750  SysBootMsg                            
20004754  sclkSrc                               
20004758  rfMode                                
20004768  rfParams                              
20004774  rfSetup                               
20004790  rfObject                              
20004820  osal_entity                           
20004824  osal_semaphore                        
20004828  osal_qHead                            
2000482c  osal_eventloop_hook                   
20004830  osal_last_timestamp                   
20004834  osal_tickperiod                       
20004838  osal_max_msecs                        
20004850  baseTaskID                            
20004854  cbTimers                              
200048d0  OSAL_timeSeconds                      
200048d4  pwrmgr_initialized                    
200048d6  pwrmgr_attribute                      
200048d8  assertSubcause                        
200048d9  legacyMode                            
200048dc  halAssertCback                        
200048e8  A4_rw_1                               
200048e8  RAM_BASE_ADDR                         
200048fc  P2_zi_1                               
200048fc  scanDataEntry                         
200049dc  scanDataQueue                         
200049ec  advInfo                               
20004a8c  wlTable                               
20004b10  wlTableScan                           
20004b94  initDataEntry                         
20004bcc  initDataQueue                         
20004bdc  advDataEntry                          
20004c14  advDataQueue                          
20004c24  advCmd                                
20004c6c  ownPublicAddr                         
20004c74  ownRandomAddr                         
20004c7c  ownSavedPublicAddr                    
20004c84  LL_TaskID                             
20004c85  maxTxPwrForDTM                        
20004c86  onePktPerEvt                          
20004c87  numComplPktsLimit                     
20004c88  numComplPktsFlush                     
20004c89  slOverride                            
20004c8a  rxFifoFlowCtrl                        
20004c8b  numTxDataBufs                         
20004c8c  verInfo                               
20004c94  rfCfgAdiVal                           
20004c96  sleepDelay                            
20004c98  buildInfo                             
20004c9c  peerInfo                              
20004ca8  chanMapUpdate                         
20004cb0  llConns                               
20004cb8  llState                               
20004cb9  curTxPowerVal                         
20004cba  numComplPkts                          
20004cbb  fastTxRespTime                        
20004cbc  maxNumConns                           
20004cbe  postRfOperations                      
20004cc0  rssiCorrection                        
20004cc4  taskEndAction                         
20004cf0  initParam                             
20004d14  scanParam                             
20004d38  slvParam                              
20004d58  advParam                              
20004d78  txModemTestCmd                        
20004d94  scanInfo                              
20004db0  initCmd                               
20004dc8  connReqData                           
20004de0  slvCmd                                
20004df8  scanCmd                               
20004e10  scanOutput                            
20004e28  trxTestCmd                            
20004e40  rxModemTestCmd                        
20004e58  initInfo                              
20004e70  connOutput                            
20004e84  rxTestParam                           
20004e98  advOutput                             
20004ea8  txTestParam                           
20004eb8  initOutput                            
20004ec4  rxTestOut                             
20004ed0  deviceFeatureSet                      
20004edc  dtmInfo                               
20004ee8  cachedTRNGdata                        
20004ef4  llTaskList                            
20004f00  pHciEvtMask                           
20004f08  bleEvtMask                            
20004f0a  taskEndStatus                         
20004f0c  rxDataQ                               
20004f10  rxRingBuf                             
20004f14  mstCmd                                
20004f18  mstParam                              
20004f1c  txDataQ                               
20004f20  txTestOut                             
20004f24  ctrlToHostEnable                      
20004f26  numHostBufs                           
20004f28  hciPTMenabled                         
20004f2c  A4_rw                                 
20004f2c  COMMON_RAM_BASE_ADDR                  
20004f40  P2_rw                                 
20004f40  P2_s0                                 
20004f40  win                                   
20004f44  workzone                              
20004f48  data_p                                
20004f4c  data_r                                
20004f50  data_a                                
20004f54  inScalar                              
20004f58  inPointX                              
20004f5c  inPointY                              
20004f60  outPointX                             
20004f64  outPointY                             
20004f68  SCAL                                  
20004f6c  EXPX                                  
20004f70  EXPY                                  
20004f74  EXPZ                                  
20004f78  EXPW                                  
20004f7c  ACCX                                  
20004f80  ACCY                                  
20004f84  ACCZ                                  
20004f88  TMP1                                  
20004f8c  TMP2                                  
20004f90  TMP3                                  
20004f94  TMP4                                  
20004f98  TMP5                                  
20004f9c  TMP6                                  
20004fa0  data_Gx                               
20004fa4  data_Gy                               
20004fa8  data_b                                
20004fac  P2_zi                                 
20004fac  ratChanInfo                           
20004fcc  fwInfoCmd                             
20004fd8  MSBMOD                                
20004fdc  aux64                                 
20004fe4  MOD                                   
20004fe8  LEN                                   
20004ffc  pSspAesEncrypt_Sw                     
ffffffff  __TI_pprof_out_hndl                   
ffffffff  __TI_prof_data_size                   
ffffffff  __TI_prof_data_start                  
ffffffff  __binit__                             
ffffffff  __c_args__                            
ffffffff  binit                                 
UNDEFED   SHT$$INIT_ARRAY$$Base                 
UNDEFED   SHT$$INIT_ARRAY$$Limit                

[1151 symbols]
