******************************************************************************
                  TI ARM Linker Unix v15.12.3                  
******************************************************************************
>> Linked Mon Nov  7 14:44:54 2016

OUTPUT FILE NAME:   <sensortag_cc2650stk_app_base.out>
ENTRY POINT SYMBOL: "ResetISR"  address: 00009cd9


MEMORY CONFIGURATION

         name            origin    length      used     unused   attr    fill
----------------------  --------  ---------  --------  --------  ----  --------
  IMAGE_HEADER          00001000   00000010  00000010  00000000  R  X
  FLASH                 00001010   00010010  0000ee72  0000119e  R  X
  SRAM                  20000000   00004428  000032f2  00001136  RW X


SEGMENT ALLOCATION MAP

run origin  load origin   length   init length attrs members
----------  ----------- ---------- ----------- ----- -------
00001000    00001000    0000ee84   0000ee84    r-x
  00001000    00001000    00000010   00000010    r-- .imgHdr
  00001010    00001010    0000003c   0000003c    r-- .resetVecs
  0000104c    0000104c    0000d6de   0000d6de    r-x .text
  0000e72c    0000e72c    00000b84   00000b84    r-- .const
  0000f2b0    0000f2b0    00000bd4   00000bd4    r-- .cinit
20000430    20000430    00000010   00000000    rw-
  20000430    20000430    00000010   00000000    rw- .TI.bound:dmaSpi0RxControlTableEntry$35
20000440    20000440    00000010   00000000    rw-
  20000440    20000440    00000010   00000000    rw- .TI.bound:dmaSpi0TxControlTableEntry$35
20000500    20000500    00000010   00000000    rw-
  20000500    20000500    00000010   00000000    rw- .TI.bound:dmaSpi1RxControlTableEntry$35
20000510    20000510    00002ffa   00000000    rw-
  20000510    20000510    00000010   00000000    rw- .TI.bound:dmaSpi1TxControlTableEntry$35
  20000520    20000520    000020f8   00000000    rw- .data
  20002618    20002618    00000ef2   00000000    rw- .bss
20004228    20004228    00000200   00000000    rw-
  20004228    20004228    00000200   00000000    rw- .stack


SECTION ALLOCATION MAP

 output                                  attributes/
section   page    origin      length       input sections
--------  ----  ----------  ----------   ----------------
.imgHdr    0    00001000    00000010     
                  00001000    00000010     oad_target_external_flash.obj (.imgHdr:retain)

.text      0    0000104c    0000d6de     
                  0000104c    00000314     RFCC26XX_singleMode.obj (.text:fsmActiveState$36)
                  00001360    000002ec     peripheral.obj (.text:gapRole_processGAPMsg$15)
                  0000164c    0000023c     peripheral.obj (.text:GAPRole_SetParameter)
                  00001888    00000228     drivers_cc26xxware.aem3 : PowerCC26XX.oem3 (.text:Power_sleep)
                  00001ab0    00000204     driverlib.lib : sys_ctrl.obj (.text:NOROM_SysCtrlSetRechargeBeforePowerDown)
                  00001cb4    000001f4     rtsv7M3_T_le_eabi.lib : ull_div_t2.obj (.text)
                  00001ea8    000001f0     sensortag.obj (.text:SensorTag_init$41)
                  00002098    000001d0     drivers_cc26xxware.aem3 : PowerCC26XX_calibrateRCOSC.oem3 (.text:calibrateRcoscHf1)
                  00002268    000001a8     PINCC26XX.obj (.text:PIN_init)
                  00002410    000001a8     RFCC26XX_singleMode.obj (.text:abortCmd$36)
                  000025b8    00000184     drivers_cc26xxware.aem3 : PowerCC26XX_calibrateRCOSC.oem3 (.text:PowerCC26XX_doCalibrate)
                  0000273c    00000170     RFCC26XX_singleMode.obj (.text:RF_postCmd)
                  000028ac    00000158     SPICC26XXDMA.obj (.text:SPICC26XXDMA_initIO$35)
                  00002a04    0000014c     SPICC26XXDMA.obj (.text:SPICC26XXDMA_open)
                  00002b50    00000138     sensortag_factoryreset.obj (.text:SensorTagFactoryReset_storeCurrentImage)
                  00002c88    00000130     driverlib.lib : setup.obj (.text:NOROM_SetupAfterColdResetWakeupFromShutDownCfg3)
                  00002db8    00000120     peripheral.obj (.text:GAPRole_GetParameter)
                  00002ed8    0000011c     drivers_cc26xxware.aem3 : PowerCC26XX.oem3 (.text:Power_init)
                  00002ff4    00000114     RFCC26XX_singleMode.obj (.text:fsmSetupState$36)
                  00003108    00000110     RFCC26XX_singleMode.obj (.text:hwiFxnCpe0Active$36)
                  00003218    000000fc     I2CCC26XX.obj (.text:I2CCC26XX_open)
                  00003314    000000fc     SensorMpu9250.obj (.text:SensorMpu9250_magRead)
                  00003410    000000fc     peripheral.obj (.text:gapRole_taskFxn$15)
                  0000350c    000000f8     sysbios.aem3 : BIOS.obj (.text:xdc_runtime_Startup_startMods__I)
                  00003604    000000f4     SensorBmp280.obj (.text:SensorBmp280_convert)
                  000036f8    000000f4     sensortag_mov.obj (.text:SensorTagMov_processSensorEvent)
                  000037ec    000000f0     SPICC26XXDMA.obj (.text:SPICC26XXDMA_transferCancel)
                  000038dc    000000ec     icall.obj (.text:ICall_primWaitMatch$30)
                  000039c8    000000ec     RFCC26XX_singleMode.obj (.text:rf_init$36)
                  00003ab4    000000ec     registerservice.obj (.text:sensor_WriteAttrCB$16)
                  00003ba0    000000e8     sensortag.obj (.text:SensorTag_processStateChangeEvt$41)
                  00003c88    000000e0     I2CCC26XX.obj (.text:I2CCC26XX_hwiFxn$39)
                  00003d68    000000dc     SensorMpu9250.obj (.text:SensorMpu9250_enableWom)
                  00003e44    000000d4     driverlib.lib : setup.obj (.text:NOROM_SetupAfterColdResetWakeupFromShutDownCfg2)
                  00003f18    000000d4     drivers_cc26xxware.aem3 : PowerCC26XX.oem3 (.text:Power_releaseDependency)
                  00003fec    000000d0                             : PowerCC26XX.oem3 (.text:Power_setDependency)
                  000040bc    000000cc     SPICC26XXDMA.obj (.text:SPICC26XXDMA_transfer)
                  00004188    000000cc     driverlib.lib : setup.obj (.text:TrimAfterColdResetWakeupFromShutDown$79)
                  00004254    000000cc     sysbios.aem3 : BIOS.obj (.text:ti_sysbios_knl_Semaphore_pend__E)
                  00004320    000000cc                  : BIOS.obj (.text:ti_sysbios_knl_Task_Instance_init__E)
                  000043ec    000000c8     SPICC26XXDMA.obj (.text:SPICC26XXDMA_configDMA$35)
                  000044b4    000000c8     RFCC26XX_singleMode.obj (.text:fsmPowerUpState$36)
                  0000457c    000000c8     sysbios.aem3 : m3_Hwi_asm.obj (.text:ti_sysbios_family_arm_m3_Hwi_dispatch__I)
                  00004644    000000c4     I2CCC26XX.obj (.text:I2CCC26XX_transfer)
                  00004708    000000c4     irtempservice.obj (.text:sensor_WriteAttrCB$10)
                  000047cc    000000c4     movementservice.obj (.text:sensor_WriteAttrCB$11)
                  00004890    000000c4     opticservice.obj (.text:sensor_WriteAttrCB$14)
                  00004954    000000c4     barometerservice.obj (.text:sensor_WriteAttrCB$2)
                  00004a18    000000c4     humidityservice.obj (.text:sensor_WriteAttrCB$8)
                  00004adc    000000c4     RFCC26XX_singleMode.obj (.text:swiFxnHw$36)
                  00004ba0    000000c0     RFCC26XX_singleMode.obj (.text:RF_open)
                  00004c60    000000c0     sensortag_mov.obj (.text:SensorTagMov_processCharChangeEvt)
                  00004d20    000000c0     ioservice.obj (.text:io_WriteAttrCB$9)
                  00004de0    000000bc     power_cc26xx_tirtos.aem3 : PowerCC26XX_tirtos.oem3 (.text:PowerCC26XX_standbyPolicy)
                  00004e9c    000000b8     sensortag_bar.obj (.text:sensorTaskFxn$42)
                  00004f54    000000b4     PINCC26XX.obj (.text:PINCC26XX_setIoCfg$37)
                  00005008    000000b4     sensortag_factoryreset.obj (.text:SensorTagFactoryReset_hasImage)
                  000050bc    000000b0     sensortag_io.obj (.text:SensorTagIO_processCharChangeEvt)
                  0000516c    000000b0     sensortag_keys.obj (.text:SensorTagKeys_processEvent)
                  0000521c    000000b0     devinfoservice.obj (.text:devInfo_ReadAttrCB$5)
                  000052cc    000000b0     peripheral.obj (.text:gapRole_init$15)
                  0000537c    000000ac     oad.obj (.text:OAD_imgBlockWrite)
                  00005428    000000a8     sensortag.obj (.text:SensorTag_taskFxn$41)
                  000054d0    000000a8     oad.obj (.text:oadWriteAttrCB$12)
                  00005578    000000a4     driverlib.lib : setup.obj (.text:NOROM_SetupTrimDevice)
                  0000561c    000000a4     ccservice.obj (.text:ccService_WriteAttrCB$4)
                  000056c0    000000a0     SPICC26XXDMA.obj (.text:SPICC26XXDMA_hwiFxn$35)
                  00005760    000000a0     auto_init.aem3 : auto_init.oem3 (.text)
                  00005800    000000a0     sysbios.aem3 : BIOS.obj (.text:ti_sysbios_knl_Task_setPri__E)
                  000058a0    0000009c     oad.obj (.text:OAD_imgIdentifyWrite)
                  0000593c    0000009c     sensortag_keys.obj (.text:SensorTagKeys_clockHandler$49)
                  000059d8    0000009c     SensorTmp007.obj (.text:SensorTmp007_test)
                  00005a74    0000009c     rtsv7M3_T_le_eabi.lib : memcpy_t2.obj (.text)
                  00005b10    00000098     PINCC26XX.obj (.text:PIN_open)
                  00005ba8    00000098     sysbios.aem3 : BIOS.obj (.text:ti_sysbios_knl_Clock_workFuncDynamic__E)
                  00005c40    00000096     SensorBmp280.obj (.text:SensorBmp280_test)
                  00005cd6    00000002     ble_user_config.obj (.text:DefaultAssertCback)
                  00005cd8    00000094     gattservapp_util.obj (.text:GATTServApp_ProcessCharCfg)
                  00005d6c    00000094     SPICC26XXDMA.obj (.text:SPICC26XXDMA_control)
                  00005e00    00000094     sensortag_opt.obj (.text:SensorTagOpt_processCharChangeEvt)
                  00005e94    00000094     sysbios.aem3 : BIOS.obj (.text:ti_sysbios_family_arm_m3_Hwi_Instance_init__E)
                  00005f28    00000090     I2CCC26XX.obj (.text:I2CCC26XX_primeTransfer$39)
                  00005fb8    00000090     oad.obj (.text:crcCalcDL$12)
                  00006048    00000090     drivers_cc26xxware.aem3 : PowerCC26XX.oem3 (.text:switchXOSCHFclockFunc)
                  000060d8    0000008c     devinfoservice.obj (.text:DevInfo_SetParameter)
                  00006164    00000088     I2CCC26XX.obj (.text:I2CCC26XX_cancel)
                  000061ec    00000088     driverlib.lib : osc.obj (.text:NOROM_OSCHF_GetStartupTime)
                  00006274    00000088     sensortag_bar.obj (.text:SensorTagBar_processCharChangeEvt)
                  000062fc    00000088     sensortag_register.obj (.text:SensorTagRegister_processCharChangeEvt)
                  00006384    00000088     registerservice.obj (.text:sensor_ReadAttrCB$16)
                  0000640c    00000084     icall.obj (.text:ICall_heapMalloc)
                  00006490    00000084     icall.obj (.text:ICall_primSetTimer$30)
                  00006514    00000084     TRNGCC26XX.obj (.text:TRNGCC26XX_getNumber)
                  00006598    00000084     sensortag_register.obj (.text:readRegister$53)
                  0000661c    00000080     RFCC26XX_singleMode.obj (.text:RF_pendCmd)
                  0000669c    00000080     sensortag_tmp.obj (.text:SensorTagTmp_processCharChangeEvt)
                  0000671c    00000080     SensorMpu9250.obj (.text:sensorMagInit$23)
                  0000679c    00000080     sysbios.aem3 : BIOS.obj (.text:ti_sysbios_family_arm_m3_Hwi_initNVIC__E)
                  0000681c    00000080                  : BIOS.obj (.text:ti_sysbios_knl_Task_postInit__I)
                  0000689c    00000080                  : BIOS.obj (.text:xdc_runtime_Core_createObject__I)
                  0000691c    0000007c     sensortag_hum.obj (.text:SensorTagHum_processCharChangeEvt)
                  00006998    0000007c     drivers_cc26xxware.aem3 : PowerCC26XX.oem3 (.text:disableLFClockQualifiers)
                  00006a14    0000007c     sensortag_tmp.obj (.text:sensorTaskFxn$54)
                  00006a90    0000007a     rtsv7M3_T_le_eabi.lib : memset_t2.obj (.text)
                  00006b0a    00000002     SPICC26XXDMA.obj (.text:SPICC26XXDMA_serviceISR$35)
                  00006b0c    00000078     driverlib.lib : setup.obj (.text:NOROM_SetupAfterColdResetWakeupFromShutDownCfg1)
                  00006b84    00000078     oad.obj (.text:OAD_rejectImage$12)
                  00006bfc    00000078     SensorTagTest.obj (.text:SensorTag_testExecute)
                  00006c74    00000078     peripheral.obj (.text:gapRole_startConnUpdate$15)
                  00006cec    00000078     sysbios.aem3 : BIOS.obj (.text:ti_sysbios_knl_Clock_walkQueueDynamic__E)
                  00006d64    00000074     icall_cc2650.obj (.text:ICallPlatform_pwrUpdActivityCounter)
                  00006dd8    00000074     icall.obj (.text:ICall_primSend$30)
                  00006e4c    00000074     drivers_cc26xxware.aem3 : PowerCC26XX_calibrateRCOSC.oem3 (.text:PowerCC26XX_auxISR)
                  00006ec0    00000074     sensortag_register.obj (.text:SensorTagRegister_reset)
                  00006f34    00000074     drivers_cc26xxware.aem3 : PowerCC26XX_calibrateRCOSC.oem3 (.text:calibrateRcoscHf2)
                  00006fa8    00000072     ExtFlash.obj (.text:ExtFlash_write)
                  0000701a    00000002     RFCC26XX_singleMode.obj (.text:defaultErrCb$36)
                  0000701c    00000070     driverlib.lib : chipinfo.obj (.text:NOROM_ChipInfo_GetHwRevision)
                  0000708c    00000070     SensorI2C.obj (.text:SensorI2C_select)
                  000070fc    00000070     sensortag_hum.obj (.text:sensorTaskFxn$47)
                  0000716c    00000070     sysbios.aem3 : BIOS.obj (.text:ti_sysbios_knl_Task_sleep__E)
                  000071dc    0000006c     icall.obj (.text:ICall_createRemoteTasks)
                  00007248    0000006c     icall.obj (.text:ICall_heapInit)
                  000072b4    0000006c     driverlib.lib : setup.obj (.text:NOROM_SetupGetTrimForAmpcompCtrl)
                  00007320    0000006c     drivers_cc26xxware.aem3 : PowerCC26XX.oem3 (.text:PowerCC26XX_calibrate)
                  0000738c    0000006c     SensorMpu9250.obj (.text:SensorMpu9250_reset)
                  000073f8    0000006c     gattservapp_util.obj (.text:gattServApp_SendNotiInd$7)
                  00007464    0000006c     movementservice.obj (.text:sensor_ReadAttrCB$11)
                  000074d0    0000006c     sysbios.aem3 : BIOS.obj (.text:xdc_runtime_Memory_alloc__E)
                  0000753c    0000006a     rtsv7M3_T_le_eabi.lib : copy_decompress_rle.obj (.text)
                  000075a6    00000002     drivers_cc26xxware.aem3 : PowerCC26XX.oem3 (.text:emptyClockFunc)
                  000075a8    00000068     driverlib.lib : setup.obj (.text:NOROM_SetupGetTrimForAnabypassValue1)
                  00007610    00000068                   : sys_ctrl.obj (.text:NOROM_SysCtrl_DCDC_VoltageConditionalControl)
                  00007678    00000068     oad_target_external_flash.obj (.text:OADTarget_getCurrentImageHeader)
                  000076e0    00000068     sensortag_conn_ctrl.obj (.text:SensorTagConnectionControl_update)
                  00007748    00000068     sensortag_factoryreset.obj (.text:SensorTagFactoryReset_extFlashErase)
                  000077b0    00000068     SensorTmp007.obj (.text:SensorTmp007_read)
                  00007818    00000068     RFCC26XX_singleMode.obj (.text:fsmPowerDownState$36)
                  00007880    00000068     sysbios.aem3 : BIOS.obj (.text:ti_sysbios_knl_Clock_startI__E)
                  000078e8    00000068                  : BIOS.obj (.text:ti_sysbios_knl_Swi_restoreHwi__E)
                  00007950    00000066     SensorHdc1000.obj (.text:SensorHdc1000_test)
                  000079b6    00000002     sysbios.aem3 : BIOS.obj (.text:ti_sysbios_BIOS_linkedWithIncorrectBootLibrary__E)
                  000079b8    00000064     I2CCC26XX.obj (.text:I2CCC26XX_close)
                  00007a1c    00000064     PINCC26XX.obj (.text:PIN_add)
                  00007a80    00000064     sysbios.aem3 : BIOS.obj (.text:ti_sysbios_family_arm_cc26xx_Timer_start__E)
                  00007ae4    00000064                  : BIOS.obj (.text:ti_sysbios_knl_Semaphore_post__E)
                  00007b48    00000062     barometerservice.obj (.text:sensor_ReadAttrCB$2)
                  00007baa    00000002     app_ble_pem3.oem3 (.text:ti_sysbios_BIOS_nullFunc__I)
                  00007bac    00000060     I2CCC26XX.obj (.text:I2CCC26XX_initIO$39)
                  00007c0c    00000060     icall.obj (.text:ICall_primEnroll$30)
                  00007c6c    00000060     oad.obj (.text:OAD_sendStatus$12)
                  00007ccc    00000060     drivers_cc26xxware.aem3 : PowerCC26XX_calibrateRCOSC.oem3 (.text:PowerCC26XX_RCOSC_clockFunc)
                  00007d2c    00000060     RFCC26XX_singleMode.obj (.text:RF_getCurrentTime)
                  00007d8c    00000060     sensortag_mov.obj (.text:appStateSet$50)
                  00007dec    00000060     battservice.obj (.text:battReadAttrCB$3)
                  00007e4c    00000060     drivers_cc26xxware.aem3 : PowerCC26XX_calibrateRCOSC.oem3 (.text:updateSubSecInc)
                  00007eac    0000005c     barometerservice.obj (.text:Barometer_setParameter)
                  00007f08    0000005c     ExtFlash.obj (.text:ExtFlash_erase)
                  00007f64    0000005c     icall.obj (.text:ICall_primThreadServes$30)
                  00007fc0    0000005c     driverlib.lib : osc.obj (.text:NOROM_OSCHF_AttemptToSwitchToXosc)
                  0000801c    0000005c                   : sys_ctrl.obj (.text:NOROM_SysCtrlAdjustRechargeAfterPowerDown)
                  00008078    0000005c     oad_target_external_flash.obj (.text:OADTarget_validateNewImage)
                  000080d4    0000005c     oad.obj (.text:OAD_getNextBlockReq$12)
                  00008130    0000005c     SensorMpu9250.obj (.text:SensorMpu9250_magReset)
                  0000818c    0000005c     SensorMpu9250.obj (.text:SensorMpu9250_test)
                  000081e8    0000005c     UDMACC26XX.obj (.text:UDMACC26XX_open)
                  00008244    0000005c     RFCC26XX_singleMode.obj (.text:applyRfCorePatch$36)
                  000082a0    0000005c     RFCC26XX_singleMode.obj (.text:decActiveClientCnt$36)
                  000082fc    0000005c     SensorMpu9250.obj (.text:sensorMpu9250WakeUp$23)
                  00008358    0000005c     sysbios.aem3 : BIOS.obj (.text:ti_sysbios_knl_Task_Module_startup__E)
                  000083b4    0000005c                  : BIOS.obj (.text:ti_sysbios_knl_Task_startCore__E)
                  00008410    0000005a     SPICC26XXDMA.obj (.text:SPICC26XXDMA_close)
                  0000846a    0000005a     irtempservice.obj (.text:sensor_ReadAttrCB$10)
                  000084c4    0000005a     opticservice.obj (.text:sensor_ReadAttrCB$14)
                  0000851e    0000005a     humidityservice.obj (.text:sensor_ReadAttrCB$8)
                  00008578    00000058     humidityservice.obj (.text:Humidity_setParameter)
                  000085d0    00000058     irtempservice.obj (.text:IRTemp_setParameter)
                  00008628    00000058     movementservice.obj (.text:Movement_setParameter)
                  00008680    00000058     oad.obj (.text:OAD_addService)
                  000086d8    00000058     PINCC26XX.obj (.text:PIN_remove)
                  00008730    00000058     drivers_cc26xxware.aem3 : PowerCC26XX_calibrateRCOSC.oem3 (.text:PowerCC26XX_initiateCalibration)
                  00008788    00000058     SPICC26XXDMA.obj (.text:SPICC26XXDMA_initHw$35)
                  000087e0    00000058     sensortag_keys.obj (.text:processGapStateChange$49)
                  00008838    00000058     sysbios.aem3 : BIOS.obj (.text:ti_sysbios_family_arm_m3_Hwi_postInit__I)
                  00008890    00000058                  : BIOS.obj (.text:ti_sysbios_knl_Swi_Instance_init__E)
                  000088e8    00000058                  : BIOS.obj (.text:ti_sysbios_knl_Swi_run__I)
                  00008940    00000056     sensortag.obj (.text:SensorTag_processCharValueChangeEvt$41)
                  00008996    00000054     I2CCC26XX.obj (.text:I2CCC26XX_swiFxn$39)
                  000089ea    00000002     sysbios.aem3 : BIOS.obj (.text:ti_sysbios_gates_GateHwi_Instance_init__E)
                  000089ec    00000054     opticservice.obj (.text:Optic_setParameter)
                  00008a40    00000054     SensorI2C.obj (.text:SensorI2C_open)
                  00008a94    00000054     sensortag_mov.obj (.text:SensorTagMov_init)
                  00008ae8    00000054     util.obj (.text:Util_rescheduleClock)
                  00008b3c    00000054     sensortag_factoryreset.obj (.text:calcImageCRC$46)
                  00008b90    00000054     drivers_cc26xxware.aem3 : PowerCC26XX.oem3 (.text:configureXOSCHF)
                  00008be4    00000054     RFCC26XX_singleMode.obj (.text:fsmXOSCState$36)
                  00008c38    00000054     RFCC26XX_singleMode.obj (.text:hwiFxnHw$36)
                  00008c8c    00000054     RFCC26XX_singleMode.obj (.text:ratChanFree$36)
                  00008ce0    00000054     rtsv7M3_T_le_eabi.lib : exit.obj (.text)
                  00008d34    00000054     sysbios.aem3 : BIOS.obj (.text:ti_sysbios_family_arm_m3_Hwi_dispatchC__I)
                  00008d88    00000054                  : BIOS.obj (.text:ti_sysbios_knl_Swi_schedule__I)
                  00008ddc    00000052     icall.obj (.text:ICall_primWait$30)
                  00008e2e    00000052     SPICC26XXDMA.obj (.text:SPICC26XXDMA_swiFxn$35)
                  00008e80    00000052     sensortag_conn_ctrl.obj (.text:SensorTagConnControl_processCharChangeEvt)
                  00008ed2    00000050     ExtFlash.obj (.text:ExtFlash_read)
                  00008f22    00000002     sysbios.aem3 : BIOS.obj (.text:ti_sysbios_knl_Clock_logTick__E)
                  00008f24    00000050     icall_api.obj (.text:GAP_DeviceInit)
                  00008f74    00000050     icall_api.obj (.text:GAP_UpdateAdvertisingData)
                  00008fc4    00000050     icall.obj (.text:ICall_primRegisterApp$30)
                  00009014    00000050     driverlib.lib : setup.obj (.text:NOROM_SetupSetCacheModeAccordingToCcfgSetting)
                  00009064    00000050     RFCC26XX_singleMode.obj (.text:RF_getInfo)
                  000090b4    00000050     oad.obj (.text:checkDL$12)
                  00009104    00000050     RFCC26XX_singleMode.obj (.text:syncCb$36)
                  00009154    00000050     sysbios.aem3 : BIOS.obj (.text:ti_sysbios_knl_Swi_runLoop__I)
                  000091a4    00000050                  : BIOS.obj (.text:xdc_runtime_Startup_exec__E)
                  000091f4    0000004e     SensorOpt3001.obj (.text:SensorOpt3001_test)
                  00009242    0000004e     ccservice.obj (.text:ccService_ReadAttrCB$4)
                  00009290    0000004e     ioservice.obj (.text:io_ReadAttrCB$9)
                  000092de    00000002     sysbios.aem3 : BIOS.obj (.text:ti_sysbios_knl_Clock_triggerFunc__I)
                  000092e0    0000004c     ExtFlash.obj (.text:ExtFlash_waitReady$27)
                  0000932c    0000004c     icall.obj (.text:ICall_newTask$30)
                  00009378    0000004c     icall.obj (.text:ICall_primGetEntityId$30)
                  000093c4    0000004c     driverlib.lib : osc.obj (.text:NOROM_OSCClockSourceSet)
                  00009410    0000004c     sensortag_opt.obj (.text:SensorTagOpt_init)
                  0000945c    0000004c     sensortag.obj (.text:SensorTag_setDeviceInfo$41)
                  000094a8    0000004c     util.obj (.text:Util_constructClock)
                  000094f4    0000004c     battservice.obj (.text:battWriteAttrCB$3)
                  00009540    0000004c     RFCC26XX_singleMode.obj (.text:dispatchOpWhen$36)
                  0000958c    0000004c     peripheral.obj (.text:gapRole_processStackMsg$15)
                  000095d8    0000004c     rtsv7M3_T_le_eabi.lib : cpy_tbl.obj (.text)
                  00009624    0000004c     sysbios.aem3 : m3_TaskSupport_asm.obj (.text:ti_sysbios_family_arm_m3_TaskSupport_buildTaskStack)
                  00009670    0000004c                  : BIOS.obj (.text:ti_sysbios_knl_Task_schedule__I)
                  000096bc    0000004a     gattservapp_util.obj (.text:GATTServApp_ProcessCCCWriteReq)
                  00009706    0000004a     SensorOpt3001.obj (.text:SensorOpt3001_read)
                  00009750    00000048     I2CCC26XX.obj (.text:I2CCC26XX_initHw$39)
                  00009798    00000048     driverlib.lib : chipinfo.obj (.text:NOROM_ChipInfo_GetChipFamily)
                  000097e0    00000048                   : ddi.obj (.text:NOROM_DDI16BitfieldWrite)
                  00009828    00000048     sensortag_oad.obj (.text:SensorTag_processOadWriteCB$51)
                  00009870    00000048     battservice.obj (.text:battNotify$3)
                  000098b8    00000048     icall_api.obj (.text:gapSendParamAndPtrCmd$29)
                  00009900    00000048     icall_api.obj (.text:gattIndNoti$29)
                  00009948    00000048     drivers_cc26xxware.aem3 : PowerCC26XX.oem3 (.text:notify)
                  00009990    00000048     sysbios.aem3 : BIOS.obj (.text:ti_sysbios_family_arm_m3_Hwi_Module_startup__E)
                  000099d8    00000048                  : m3_Hwi_asm_switch.obj (.text:ti_sysbios_family_arm_m3_Hwi_initStacks__E)
                  00009a20    00000048     app_ble_pem3.oem3 (.text:ti_sysbios_hal_Hwi_create)
                  00009a68    00000048     sensortag_register.obj (.text:writeRegister$53)
                  00009ab0    00000048     sysbios.aem3 : BIOS.obj (.text:xdc_runtime_Core_assignParams__I)
                  00009af8    00000048                  : BIOS.obj (.text:xdc_runtime_Core_constructObject__I)
                  00009b40    00000044     icall_api.obj (.text:GAP_TerminateLinkReq)
                  00009b84    00000044     PINCC26XX.obj (.text:PIN_swi$37)
                  00009bc8    00000044     SensorHdc1000.obj (.text:SensorHdc1000_read)
                  00009c0c    00000044     SensorMpu9250.obj (.text:SensorMpu9250_accSetRange)
                  00009c50    00000044     sensortag_io.obj (.text:SensorTagIO_blinkLed)
                  00009c94    00000044     sensortag_io.obj (.text:SensorTagIO_reset)
                  00009cd8    00000044     boot.aem3 : boot.oem3 (.text)
                  00009d1c    00000044     SensorMpu9250.obj (.text:sensorMpu9250SetBypass$23)
                  00009d60    00000044     app_ble_pem3.oem3 (.text:ti_sysbios_family_arm_m3_Hwi_Object__create__S)
                  00009da4    00000044     sysbios.aem3 : BIOS.obj (.text:ti_sysbios_family_arm_m3_Hwi_disableInterrupt__E)
                  00009de8    00000044                  : BIOS.obj (.text:ti_sysbios_family_arm_m3_Hwi_enableInterrupt__E)
                  00009e2c    00000044                  : BIOS.obj (.text:ti_sysbios_knl_Swi_post__E)
                  00009e70    00000044                  : BIOS.obj (.text:ti_sysbios_knl_Task_allBlockedFunction__I)
                  00009eb4    00000044     app_ble_pem3.oem3 (.text:ti_sysbios_knl_Task_create)
                  00009ef8    00000042     icall.obj (.text:ICall_primCreateTask$30)
                  00009f3a    00000002     sysbios.aem3 : BIOS.obj (.text:ti_sysbios_knl_Swi_Instance_finalize__E)
                  00009f3c    00000040     ExtFlash.obj (.text:ExtFlash_open)
                  00009f7c    00000040     ExtFlash.obj (.text:ExtFlash_readInfo$27)
                  00009fbc    00000040     peripheral.obj (.text:GAPRole_createTask)
                  00009ffc    00000040     driverlib.lib : ddi.obj (.text:NOROM_DDI16BitfieldRead)
                  0000a03c    00000040     oad_target_external_flash.obj (.text:OADTarget_storeImageHeader)
                  0000a07c    00000040     RFCC26XX_singleMode.obj (.text:RF_getRssi)
                  0000a0bc    00000040     simplekeys.obj (.text:SK_readAttrCB$17)
                  0000a0fc    00000040     SensorI2C.obj (.text:SensorI2C_read)
                  0000a13c    00000040     SensorMpu9250.obj (.text:SensorMpu9250_magTest)
                  0000a17c    00000040     sensortag_factoryreset.obj (.text:SensorTagFactoryReset_applyFactoryImage)
                  0000a1bc    00000040     sensortag_oad.obj (.text:SensorTagOad_processEvent)
                  0000a1fc    00000040     SensorTmp007.obj (.text:SensorTmp007_enable)
                  0000a23c    00000040     ExtFlash.obj (.text:extFlashVerifyPart$27)
                  0000a27c    00000040     SensorMpu9250.obj (.text:sensorMagEnable$23)
                  0000a2bc    00000040     SensorMpu9250.obj (.text:sensorMpuSleep$23)
                  0000a2fc    00000040     sysbios.aem3 : BIOS.obj (.text:ti_sysbios_family_arm_m3_Hwi_getStackInfo__E)
                  0000a33c    00000040                  : BIOS.obj (.text:xdc_runtime_HeapMin_alloc__E)
                  0000a37c    0000003c     icall_api.obj (.text:GAP_GetParamValue)
                  0000a3b8    0000003c     icall_api.obj (.text:GATTServApp_RegisterService)
                  0000a3f4    0000003c     icall_cc2650.obj (.text:ICallPlatform_pwrConfigACAction)
                  0000a430    0000003c     driverlib.lib : osc.obj (.text:NOROM_OSC_HPOSCRelativeFrequencyOffsetGet)
                  0000a46c    0000003c                   : rfc.obj (.text:NOROM_RFCSynthPowerDown)
                  0000a4a8    0000003c     PINCC26XX.obj (.text:PINCC26XX_getConfig)
                  0000a4e4    0000003c     RFCC26XX_singleMode.obj (.text:RF_runCmd)
                  0000a520    0000003c     registerservice.obj (.text:Register_setParameter)
                  0000a55c    0000003c     SPICC26XXDMA.obj (.text:SPICC26XXDMA_csnCallback$35)
                  0000a598    0000003c     SensorBmp280.obj (.text:SensorBmp280_read)
                  0000a5d4    0000003c     SensorI2C.obj (.text:SensorI2C_writeRead)
                  0000a610    0000003c     SensorMpu9250.obj (.text:SensorMpu9250_accRead)
                  0000a64c    0000003c     SensorMpu9250.obj (.text:SensorMpu9250_accReadRange)
                  0000a688    0000003c     sensortag_bar.obj (.text:SensorTagBar_createTask)
                  0000a6c4    0000003c     sensortag_buzzer.obj (.text:SensorTagBuzzer_open)
                  0000a700    0000003c     sensortag_buzzer.obj (.text:SensorTagBuzzer_setFrequency)
                  0000a73c    0000003c     sensortag_hum.obj (.text:SensorTagHum_createTask)
                  0000a778    0000003c     sensortag_tmp.obj (.text:SensorTagTmp_createTask)
                  0000a7b4    0000003c     sensortag.obj (.text:SensorTag_createTask)
                  0000a7f0    0000003c     oad.obj (.text:oadReadAttrCB$12)
                  0000a82c    0000003c     RFCC26XX_singleMode.obj (.text:postDirImmCmd$36)
                  0000a868    0000003c     icall_api.obj (.text:profileSetParameter$29)
                  0000a8a4    0000003c     icall_api.obj (.text:sendWaitMatchCS$29)
                  0000a8e0    0000003c     icall_api.obj (.text:sendWaitMatchValueCS$29)
                  0000a91c    0000003c     app_ble_pem3.oem3 (.text:ti_sysbios_family_arm_m3_Hwi_construct)
                  0000a958    0000003a     SensorMpu9250.obj (.text:SensorMpu9250_irqStatus)
                  0000a992    0000003a     sysbios.aem3 : BIOS.obj (.text:ti_sysbios_knl_Task_exit__E)
                  0000a9cc    00000038     icall_api.obj (.text:GAPBondMgr_LinkEst)
                  0000aa04    00000038     peripheral.obj (.text:GAPRole_SendUpdateParam)
                  0000aa3c    00000038     I2C.obj (.text:I2C_init)
                  0000aa74    00000038     icall.obj (.text:ICall_primGetMaxMSecs$30)
                  0000aaac    00000038     SensorI2C.obj (.text:SensorI2C_write)
                  0000aae4    00000038     SensorMpu9250.obj (.text:SensorMpu9250_gyroRead)
                  0000ab1c    00000038     sensortag_opt.obj (.text:SensorTagOpt_reset)
                  0000ab54    00000038     util.obj (.text:Util_restartClock)
                  0000ab8c    00000038     battservice.obj (.text:battMeasure$3)
                  0000abc4    00000038     battservice.obj (.text:battNotifyLevel$3)
                  0000abfc    00000038     icall_api.obj (.text:linkDB_NumConns)
                  0000ac34    00000038     sysbios.aem3 : BIOS.obj (.text:ti_sysbios_family_arm_cc26xx_Timer_getCurrentTick__E)
                  0000ac6c    00000038                  : BIOS.obj (.text:ti_sysbios_family_arm_m3_Hwi_Instance_finalize__E)
                  0000aca4    00000038                  : BIOS.obj (.text:ti_sysbios_knl_Clock_Instance_init__E)
                  0000acdc    00000038     app_ble_pem3.oem3 (.text:ti_sysbios_knl_Clock_create)
                  0000ad14    00000038     app_ble_pem3.oem3 (.text:ti_sysbios_knl_Swi_construct)
                  0000ad4c    00000038     app_ble_pem3.oem3 (.text:ti_sysbios_knl_Task_construct)
                  0000ad84    00000038     sysbios.aem3 : BIOS.obj (.text:xdc_runtime_System_atexit__E)
                  0000adbc    00000036     UDMACC26XX.obj (.text:UDMACC26XX_close)
                  0000adf2    00000036     RFCC26XX_singleMode.obj (.text:updateImplicitState$36)
                  0000ae28    00000034     icall_api.obj (.text:GAPBondMgr_SetParameter)
                  0000ae5c    00000034     icall_api.obj (.text:GAP_SetParamValue)
                  0000ae90    00000034     icall.obj (.text:ICall_primEntityId2ServiceId$30)
                  0000aec4    00000034     icall.obj (.text:ICall_primFetchMsg$30)
                  0000aef8    00000034     icall.obj (.text:ICall_primRegisterISR$30)
                  0000af2c    00000034     icall.obj (.text:ICall_primRegisterISR_Ext$30)
                  0000af60    00000034     icall.obj (.text:ICall_searchServiceEntity)
                  0000af94    00000034     ioservice.obj (.text:Io_setParameter)
                  0000afc8    00000034     driverlib.lib : ddi.obj (.text:NOROM_DDI32RegWrite)
                  0000affc    00000034                   : osc.obj (.text:NOROM_OSCHF_SwitchToRcOscTurnOffXosc)
                  0000b030    00000034     PINCC26XX.obj (.text:PIN_setOutputValue)
                  0000b064    00000034     drivers_cc26xxware.aem3 : PowerCC26XX.oem3 (.text:PowerCC26XX_isStableXOSC_HF)
                  0000b098    00000034     RFCC26XX_singleMode.obj (.text:Q_push$36)
                  0000b0cc    00000034     registerservice.obj (.text:Register_getParameter)
                  0000b100    00000034     SensorBmp280.obj (.text:SensorBmp280_init)
                  0000b134    00000034     SensorMpu9250.obj (.text:SensorMpu9250_enable)
                  0000b168    00000034     sensortag_keys.obj (.text:SensorTagKeys_processKeyLeft)
                  0000b19c    00000034     sensortag_keys.obj (.text:SensorTagKeys_processKeyRight)
                  0000b1d0    00000034     sensortag_keys.obj (.text:SensorTagKeys_processRelay)
                  0000b204    00000034     peripheral.obj (.text:gapRole_HandleParamUpdateNoSuccess$15)
                  0000b238    00000034     icall_api.obj (.text:osal_snv_read)
                  0000b26c    00000034     icall_api.obj (.text:osal_snv_write)
                  0000b2a0    00000034     icall_api.obj (.text:profileAddService$29)
                  0000b2d4    00000034     sysbios.aem3 : BIOS.obj (.text:ti_sysbios_family_arm_cc26xx_Timer_initDevice__I)
                  0000b308    00000034     app_ble_pem3.oem3 (.text:ti_sysbios_knl_Clock_construct)
                  0000b33c    00000034     app_ble_pem3.oem3 (.text:ti_sysbios_knl_Semaphore_create)
                  0000b370    00000034     sysbios.aem3 : BIOS.obj (.text:ti_sysbios_knl_Swi_restore__E)
                  0000b3a4    00000034                  : BIOS.obj (.text:ti_sysbios_knl_Task_blockI__E)
                  0000b3d8    00000032     icall_api.obj (.text:gapSendParamsCmd$29)
                  0000b40a    00000032     icall_api.obj (.text:gapSendPtrParamsCmd$29)
                  0000b43c    00000032     icall_api.obj (.text:matchGapSetGetParamCS$29)
                  0000b46e    00000032     icall_api.obj (.text:matchGattCmdStatus$29)
                  0000b4a0    00000032     icall_api.obj (.text:matchUtilNvCS$29)
                  0000b4d2    00000032     sysbios.aem3 : BIOS.obj (.text:ti_sysbios_family_arm_cc26xx_Timer_setNextTick__E)
                  0000b504    00000030     ExtFlash.obj (.text:ExtFlash_close)
                  0000b534    00000030     icall_cc2650.obj (.text:ICallPlatform_pwrNotify$31)
                  0000b564    00000030     icall_cc2650.obj (.text:ICallPlatform_pwrRegisterNotify)
                  0000b594    00000030     icall.obj (.text:ICall_msecs2Ticks$30)
                  0000b5c4    00000030     icall.obj (.text:ICall_searchTask$30)
                  0000b5f4    00000030     movementservice.obj (.text:Movement_getParameter)
                  0000b624    00000030     driverlib.lib : setup.obj (.text:NOROM_SetupSetAonRtcSubSecInc)
                  0000b654    00000030                   : trng.obj (.text:NOROM_TRNGConfigure)
                  0000b684    00000030     PINCC26XX.obj (.text:PIN_setInterrupt)
                  0000b6b4    00000030     drivers_cc26xxware.aem3 : PowerCC26XX.oem3 (.text:Power_releaseConstraint)
                  0000b6e4    00000030                             : PowerCC26XX.oem3 (.text:Power_setConstraint)
                  0000b714    00000030     SensorMpu9250.obj (.text:SensorMpu9250_powerOn)
                  0000b744    00000030     ExtFlash.obj (.text:Spi_open$27)
                  0000b774    00000030     ExtFlash.obj (.text:Spi_read$27)
                  0000b7a4    00000030     ExtFlash.obj (.text:Spi_write$27)
                  0000b7d4    00000030     oad.obj (.text:crc16$12)
                  0000b804    00000030     sensortag_factoryreset.obj (.text:crc16$46)
                  0000b834    00000030     oad_target_external_flash.obj (.text:saveImageInfo)
                  0000b864    00000030     SensorMpu9250.obj (.text:sensorMpu9250SelectAxes$23)
                  0000b894    00000030     app_ble_pem3.oem3 (.text:ti_sysbios_BIOS_atExitFunc__I)
                  0000b8c4    00000030     app_ble_pem3.oem3 (.text:ti_sysbios_BIOS_startFunc__I)
                  0000b8f4    00000030     sysbios.aem3 : BIOS.obj (.text:ti_sysbios_family_arm_cc26xx_Timer_setThreshold__I)
                  0000b924    00000030     app_ble_pem3.oem3 (.text:ti_sysbios_gates_GateHwi_Object__create__S)
                  0000b954    00000030     app_ble_pem3.oem3 (.text:ti_sysbios_gates_GateMutex_Object__create__S)
                  0000b984    00000030     sysbios.aem3 : BIOS.obj (.text:ti_sysbios_gates_GateMutex_enter__E)
                  0000b9b4    00000030     app_ble_pem3.oem3 (.text:ti_sysbios_knl_Semaphore_construct)
                  0000b9e4    00000030     sysbios.aem3 : BIOS.obj (.text:ti_sysbios_knl_Task_processVitalTaskFlag__I)
                  0000ba14    00000030     app_ble_pem3.oem3 (.text:xdc_runtime_HeapMin_Object__create__S)
                  0000ba44    00000030     sysbios.aem3 : BIOS.obj (.text:xdc_runtime_HeapMin_free__E)
                  0000ba74    00000030                  : BIOS.obj (.text:xdc_runtime_System_processAtExit__E)
                  0000baa4    0000002e     icall_cc2650.obj (.text:ICallPlatform_pwrDispenseImpl$31)
                  0000bad2    0000002e     icall_cc2650.obj (.text:ICallPlatform_pwrRequireImpl$31)
                  0000bb00    0000002e     peripheral.obj (.text:ICall_fetchServiceMsg$15)
                  0000bb2e    0000002e     sensortag.obj (.text:ICall_fetchServiceMsg$41)
                  0000bb5c    0000002e     icall.obj (.text:ICall_msgDequeue$30)
                  0000bb8a    0000002e     simplekeys.obj (.text:SK_writeAttrCB$17)
                  0000bbb8    0000002e     SensorOpt3001.obj (.text:SensorOpt3001_enable)
                  0000bbe6    0000002e     main.obj (.text:main)
                  0000bc14    0000002e     icall_api.obj (.text:matchProfileAddServiceCS$29)
                  0000bc42    0000002e     sysbios.aem3 : BIOS.obj (.text:ti_sysbios_family_arm_m3_TaskSupport_start__E)
                  0000bc70    0000002c     ExtFlash.obj (.text:ExtFlash_writeEnable$27)
                  0000bc9c    0000002c     icall_api.obj (.text:GAPBondMgr_Register)
                  0000bcc8    0000002c     icall.obj (.text:ICall_heapFree)
                  0000bcf4    0000002c     irtempservice.obj (.text:ICall_malloc$10)
                  0000bd20    0000002c     movementservice.obj (.text:ICall_malloc$11)
                  0000bd4c    0000002c     oad.obj (.text:ICall_malloc$12)
                  0000bd78    0000002c     opticservice.obj (.text:ICall_malloc$14)
                  0000bda4    0000002c     simplekeys.obj (.text:ICall_malloc$17)
                  0000bdd0    0000002c     barometerservice.obj (.text:ICall_malloc$2)
                  0000bdfc    0000002c     battservice.obj (.text:ICall_malloc$3)
                  0000be28    0000002c     ccservice.obj (.text:ICall_malloc$4)
                  0000be54    0000002c     humidityservice.obj (.text:ICall_malloc$8)
                  0000be80    0000002c     ioservice.obj (.text:ICall_malloc$9)
                  0000beac    0000002c     icall.obj (.text:ICall_msgEnqueue$30)
                  0000bed8    0000002c     icall.obj (.text:ICall_primAllocMsg$30)
                  0000bf04    0000002c     icall.obj (.text:ICall_primFetchServiceMsg$30)
                  0000bf30    0000002c     icall_api.obj (.text:ICall_sendServiceMsg$29)
                  0000bf5c    0000002c     driverlib.lib : setup.obj (.text:NOROM_SetupGetTrimForRadcExtCfg)
                  0000bf88    0000002c     PINCC26XX.obj (.text:PINCC26XX_setMux)
                  0000bfb4    0000002c     PINCC26XX.obj (.text:PIN_setConfig)
                  0000bfe0    0000002c     SensorHdc1000.obj (.text:SensorHdc1000_init)
                  0000c00c    0000002c     SensorHdc1000.obj (.text:SensorHdc1000_start)
                  0000c038    0000002c     SensorI2C.obj (.text:SensorI2C_writeReg)
                  0000c064    0000002c     SensorMpu9250.obj (.text:SensorMpu9250_init)
                  0000c090    0000002c     sensortag_bar.obj (.text:SensorTagBar_init)
                  0000c0bc    0000002c     sensortag_batt.obj (.text:SensorTagBatt_init)
                  0000c0e8    0000002c     sensortag_hum.obj (.text:SensorTagHum_init)
                  0000c114    0000002c     sensortag_mov.obj (.text:SensorTagMov_reset)
                  0000c140    0000002c     ExtFlash.obj (.text:extFlashPowerStandby$27)
                  0000c16c    0000002c     RFCC26XX_singleMode.obj (.text:getCmd$36)
                  0000c198    0000002c     sysbios.aem3 : BIOS.obj (.text:ti_sysbios_hal_Hwi_initStack)
                  0000c1c4    0000002c                  : BIOS.obj (.text:ti_sysbios_knl_Clock_getTicksUntilInterrupt__E)
                  0000c1f0    0000002c     app_ble_pem3.oem3 (.text:ti_sysbios_knl_Queue_construct)
                  0000c21c    0000002c     sysbios.aem3 : BIOS.obj (.text:ti_sysbios_knl_Semaphore_pendTimeout__I)
                  0000c248    0000002c                  : BIOS.obj (.text:ti_sysbios_knl_Task_unblockI__E)
                  0000c274    0000002c     st_util.obj (.text:utilExtractUuid16)
                  0000c2a0    0000002a     icall_api.obj (.text:ICall_waitMatch$29)
                  0000c2ca    0000002a     TRNGCC26XX.obj (.text:TRNGCC26XX_isParamValid)
                  0000c2f4    0000002a     util.obj (.text:Util_enqueueMsg)
                  0000c31e    0000002a     icall_api.obj (.text:matchProfileCS$29)
                  0000c348    00000028     barometerservice.obj (.text:Barometer_addService)
                  0000c370    00000028     battservice.obj (.text:Batt_AddService)
                  0000c398    00000028     ccservice.obj (.text:CcService_addService)
                  0000c3c0    00000028     ccservice.obj (.text:CcService_setParameter)
                  0000c3e8    00000028     gattservapp_util.obj (.text:GATTServApp_WriteCharCfg)
                  0000c410    00000028     humidityservice.obj (.text:Humidity_addService)
                  0000c438    00000028     icall.obj (.text:ICall_init)
                  0000c460    00000028     icall.obj (.text:ICall_msgPrepend$30)
                  0000c488    00000028     peripheral.obj (.text:ICall_registerApp$15)
                  0000c4b0    00000028     sensortag.obj (.text:ICall_registerApp$41)
                  0000c4d8    00000028     sensortag_bar.obj (.text:ICall_registerApp$42)
                  0000c500    00000028     sensortag_hum.obj (.text:ICall_registerApp$47)
                  0000c528    00000028     sensortag_tmp.obj (.text:ICall_registerApp$54)
                  0000c550    00000028     irtempservice.obj (.text:IRTemp_addService)
                  0000c578    00000028     ioservice.obj (.text:Io_addService)
                  0000c5a0    00000028     movementservice.obj (.text:Movement_addService)
                  0000c5c8    00000028     driverlib.lib : aon_batmon.obj (.text:NOROM_AONBatMonTemperatureGetDegC)
                  0000c5f0    00000028     opticservice.obj (.text:Optic_addService)
                  0000c618    00000028     PINCC26XX.obj (.text:PINCC26XX_getPinCount)
                  0000c640    00000028     drivers_cc26xxware.aem3 : PowerCC26XX.oem3 (.text:PowerCC26XX_switchXOSC_HF)
                  0000c668    00000028                             : PowerCC26XX.oem3 (.text:Power_registerNotify)
                  0000c690    00000028     simplekeys.obj (.text:SK_AddService)
                  0000c6b8    00000028     simplekeys.obj (.text:SK_SetParameter)
                  0000c6e0    00000028     SPICC26XXDMA.obj (.text:SPICC26XXDMA_flushFifos$35)
                  0000c708    00000028     driverlib.lib : adi.obj (.text:SafeHapiVoid)
                  0000c730    00000028     SensorBmp280.obj (.text:SensorBmp280_enable)
                  0000c758    00000028     sensortag_bar.obj (.text:SensorTagBar_reset)
                  0000c780    00000028     sensortag_buzzer.obj (.text:SensorTagBuzzer_close)
                  0000c7a8    00000028     sensortag_conn_ctrl.obj (.text:SensorTagConnControl_paramUpdateCB)
                  0000c7d0    00000028     sensortag_keys.obj (.text:SensorTagKeys_init)
                  0000c7f8    00000028     sensortag_oad.obj (.text:SensorTagOad_init)
                  0000c820    00000028     sensortag_tmp.obj (.text:SensorTagTmp_init)
                  0000c848    00000028     sensortag_tmp.obj (.text:SensorTagTmp_reset)
                  0000c870    00000028     sensortag.obj (.text:SensorTag_enqueueMsg$41)
                  0000c898    00000028     sensortag.obj (.text:SensorTag_resetAllModules$41)
                  0000c8c0    00000028     TRNGCC26XX.obj (.text:TRNGCC26XX_init)
                  0000c8e8    00000028     RFCC26XX_singleMode.obj (.text:clkPowerUpFxn$36)
                  0000c910    00000028     gattservapp_util.obj (.text:gattServApp_FindCharCfgItem$7)
                  0000c938    00000028     sysbios.aem3 : BIOS.obj (.text:ti_sysbios_family_arm_cc26xx_Timer_getMaxTicks__E)
                  0000c960    00000028                  : BIOS.obj (.text:ti_sysbios_knl_Clock_addI__E)
                  0000c988    00000028                  : BIOS.obj (.text:ti_sysbios_knl_Task_restore__E)
                  0000c9b0    00000026     drivers_cc26xxware.aem3 : List.oem3 (.text:List_put)
                  0000c9d6    00000026     sysbios.aem3 : BIOS.obj (.text:ti_sysbios_hal_Hwi_Instance_init__E)
                  0000c9fc    00000024     barometerservice.obj (.text:Barometer_getParameter)
                  0000ca20    00000024     icall_api.obj (.text:GAPBondMgr_LinkTerm)
                  0000ca44    00000024     I2C.obj (.text:I2C_open)
                  0000ca68    00000024     icall_api.obj (.text:ICall_getLocalMsgEntityId$29)
                  0000ca8c    00000024     icall_api.obj (.text:ICall_threadServes$29)
                  0000cab0    00000024     SPI.obj (.text:SPI_open)
                  0000cad4    00000024     SensorMpu9250.obj (.text:SensorMpu9250_powerOff)
                  0000caf8    00000024     sensortag_hum.obj (.text:SensorTagHum_reset)
                  0000cb1c    00000024     sensortag_opt.obj (.text:SensorTagOpt_processSensorEvent)
                  0000cb40    00000024     sensortag_register.obj (.text:SensorTagRegister_update)
                  0000cb64    00000024     oad_target_external_flash.obj (.text:getImageFlag)
                  0000cb88    00000024     drivers_cc26xxware.aem3 : PowerCC26XX_calibrateRCOSC.oem3 (.text:getTdcSemaphore)
                  0000cbac    00000024     RFCC26XX_singleMode.obj (.text:hwiFxnCpe0PowerFsm$36)
                  0000cbd0    00000024     app_ble_pem3.oem3 (.text:ti_sysbios_BIOS_registerRTSLock__I)
                  0000cbf4    00000024     app_ble_pem3.oem3 (.text:ti_sysbios_BIOS_removeRTSLock__I)
                  0000cc18    00000024     sysbios.aem3 : BIOS.obj (.text:ti_sysbios_family_arm_cc26xx_Timer_Module_startup__E)
                  0000cc3c    00000024                  : BIOS.obj (.text:ti_sysbios_family_arm_cc26xx_Timer_startup__E)
                  0000cc60    00000024                  : BIOS.obj (.text:ti_sysbios_knl_Semaphore_Instance_init__E)
                  0000cc84    00000024                  : BIOS.obj (.text:ti_sysbios_knl_Swi_Module_startup__E)
                  0000cca8    00000022     icall.obj (.text:ICall_dispatch$30)
                  0000ccca    00000022     sensortag.obj (.text:ICall_malloc$41)
                  0000ccec    00000022     sensortag_oad.obj (.text:ICall_malloc$51)
                  0000cd0e    00000022     util.obj (.text:ICall_malloc$55)
                  0000cd30    00000022     rtsv7M3_T_le_eabi.lib : memcmp.obj (.text)
                  0000cd52    00000022     sysbios.aem3 : BIOS.obj (.text:ti_sysbios_family_arm_cc26xx_Timer_postInit__I)
                  0000cd74    00000020     gattservapp_util.obj (.text:GATTServApp_InitCharCfg)
                  0000cd94    00000020     humidityservice.obj (.text:Humidity_getParameter)
                  0000cdb4    00000020     icall_api.obj (.text:ICall_allocMsg$29)
                  0000cdd4    00000020     icall_api.obj (.text:ICall_getEntityId$29)
                  0000cdf4    00000020     devinfoservice.obj (.text:ICall_malloc$5)
                  0000ce14    00000020     icall.obj (.text:ICall_primService$30)
                  0000ce34    00000020     icall.obj (.text:ICall_searchService$30)
                  0000ce54    00000020     irtempservice.obj (.text:IRTemp_getParameter)
                  0000ce74    00000020     driverlib.lib : rfc.obj (.text:NOROM_RFCDoorbellSendTo)
                  0000ce94    00000020                   : rfc.obj (.text:NOROM_RFCRfTrimRead)
                  0000ceb4    00000020                   : setup.obj (.text:NOROM_SetupGetTrimForXoscHfCtl)
                  0000ced4    00000020     opticservice.obj (.text:Optic_getParameter)
                  0000cef4    00000020     drivers_cc26xxware.aem3 : PowerCC26XX.oem3 (.text:Power_unregisterNotify)
                  0000cf14    00000020     sensortag_batt.obj (.text:SensorTagBatt_reset)
                  0000cf34    00000020     sensortag_io.obj (.text:SensorTagIO_init)
                  0000cf54    00000020     sensortag_mov.obj (.text:SensorTagMov_processInterrupt$50)
                  0000cf74    00000020     sensortag_opt.obj (.text:SensorTagOpt_clockHandler$52)
                  0000cf94    00000020     UDMACC26XX.obj (.text:UDMACC26XX_initHw$32)
                  0000cfb4    00000020     RFCC26XX_singleMode.obj (.text:allocCmd$36)
                  0000cfd4    00000020     sensortag_mov.obj (.text:initCharacteristicValue$50)
                  0000cff4    00000020     app_ble_pem3.oem3 (.text:ti_sysbios_BIOS_rtsLock__I)
                  0000d014    00000020     sysbios.aem3 : BIOS.obj (.text:ti_sysbios_family_arm_cc26xx_Timer_dynamicStub__E)
                  0000d034    00000020                  : m3_Hwi_asm.obj (.text:ti_sysbios_family_arm_m3_Hwi_excHandlerAsm__I)
                  0000d054    00000020                  : BIOS.obj (.text:ti_sysbios_family_arm_m3_Hwi_excHandler__I)
                  0000d074    00000020                  : BIOS.obj (.text:ti_sysbios_knl_Clock_Module_startup__E)
                  0000d094    00000020                  : BIOS.obj (.text:ti_sysbios_knl_Clock_getTicks__E)
                  0000d0b4    00000020                  : BIOS.obj (.text:ti_sysbios_knl_Clock_stop__E)
                  0000d0d4    00000020                  : BIOS.obj (.text:ti_sysbios_knl_Idle_run__E)
                  0000d0f4    00000020     app_ble_pem3.oem3 (.text:ti_sysbios_knl_Semaphore_Object__destruct__S)
                  0000d114    00000020     sysbios.aem3 : BIOS.obj (.text:ti_sysbios_knl_Task_restoreHwi__E)
                  0000d134    0000001e     icall.obj (.text:ICall_primSendServiceMsg$30)
                  0000d152    0000001e     PINCC26XX.obj (.text:PIN_close)
                  0000d170    0000001e     drivers_cc26xxware.aem3 : PowerCC26XX.oem3 (.text:Power_getTransitionLatency)
                  0000d18e    0000001e     sysbios.aem3 : m3_Hwi_asm_switch.obj (.text:ti_sysbios_family_xxx_Hwi_switchAndRunFunc)
                  0000d1ac    0000001e     icall_api.obj (.text:waitMatchCS$29)
                  0000d1ca    00000002     sysbios.aem3 : BIOS.obj (.text:xdc_runtime_Error_policySpin__E)
                  0000d1cc    0000001c     battservice.obj (.text:Batt_MeasLevel)
                  0000d1e8    0000001c     icall_api.obj (.text:GATT_bm_alloc)
                  0000d204    0000001c     icall_api.obj (.text:GATT_bm_free)
                  0000d220    0000001c     icall.obj (.text:ICall_initPrim$30)
                  0000d23c    0000001c     peripheral.obj (.text:ICall_wait$15)
                  0000d258    0000001c     sensortag.obj (.text:ICall_wait$41)
                  0000d274    0000001c     driverlib.lib : osc.obj (.text:NOROM_OSCClockSourceGet)
                  0000d290    0000001c                   : setup.obj (.text:NOROM_SetupGetTrimForAmpcompTh2)
                  0000d2ac    0000001c                   : setup.obj (.text:NOROM_SetupGetTrimForRcOscLfRtuneCtuneTrim)
                  0000d2c8    0000001c     PINCC26XX.obj (.text:PINCC26XX_setIoCfgMux$37)
                  0000d2e4    0000001c     PINCC26XX.obj (.text:PIN_hwi$37)
                  0000d300    0000001c     RFCC26XX_singleMode.obj (.text:RF_runDirectCmd)
                  0000d31c    0000001c     RFCC26XX_singleMode.obj (.text:RF_runImmediateCmd)
                  0000d338    0000001c     SPI.obj (.text:SPI_Params_init)
                  0000d354    0000001c     sensortag_batt.obj (.text:SensorTagBatt_processCharChangeEvt)
                  0000d370    0000001c     sensortag.obj (.text:SensorTag_processAppMsg$41)
                  0000d38c    0000001c     TRNGCC26XX.obj (.text:TRNGCC26XX_open)
                  0000d3a8    0000001c     icall_api.obj (.text:getStatusValueFromErrNo$29)
                  0000d3c4    0000001c     TRNGCC26XX.obj (.text:openTRNG)
                  0000d3e0    0000001c     app_ble_pem3.oem3 (.text:ti_sysbios_family_arm_m3_Hwi_Object__destruct__S)
                  0000d3fc    0000001c     sysbios.aem3 : BIOS.obj (.text:ti_sysbios_family_arm_m3_Hwi_setPriority__E)
                  0000d418    0000001c                  : BIOS.obj (.text:ti_sysbios_gates_GateMutex_Instance_init__E)
                  0000d434    0000001c     app_ble_pem3.oem3 (.text:ti_sysbios_hal_Hwi_HwiProxy_create)
                  0000d450    0000001c     sysbios.aem3 : BIOS.obj (.text:ti_sysbios_knl_Clock_scheduleNextTick__E)
                  0000d46c    0000001c     app_ble_pem3.oem3 (.text:ti_sysbios_knl_Queue_Object__destruct__S)
                  0000d488    0000001c     sysbios.aem3 : BIOS.obj (.text:ti_sysbios_knl_Queue_get__E)
                  0000d4a4    0000001c                  : BIOS.obj (.text:ti_sysbios_knl_Queue_put__E)
                  0000d4c0    0000001c     app_ble_pem3.oem3 (.text:ti_sysbios_knl_Swi_Object__destruct__S)
                  0000d4dc    0000001c     sysbios.aem3 : BIOS.obj (.text:ti_sysbios_knl_Task_enter__I)
                  0000d4f8    0000001c                  : BIOS.obj (.text:xdc_runtime_Error_check__E)
                  0000d514    0000001c                  : BIOS.obj (.text:xdc_runtime_Error_raiseX__E)
                  0000d530    0000001c                  : BIOS.obj (.text:xdc_runtime_Memory_valloc__E)
                  0000d54c    0000001c                  : BIOS.obj (.text:xdc_runtime_System_abort__E)
                  0000d568    0000001a     icall_api.obj (.text:GATT_Notification)
                  0000d582    0000001a     icall.obj (.text:ICall_enterCSImpl)
                  0000d59c    0000001a     icall.obj (.text:ICall_primSetTimerMSecs$30)
                  0000d5b6    0000001a     drivers_cc26xxware.aem3 : List.oem3 (.text:List_remove)
                  0000d5d0    0000001a     util.obj (.text:Util_dequeueMsg)
                  0000d5ea    0000001a     ExtFlash.obj (.text:extFlashPowerDown$27)
                  0000d604    0000001a     icall_api.obj (.text:matchGattIndNotiCS$29)
                  0000d61e    0000001a     sysbios.aem3 : m3_Hwi_asm.obj (.text:ti_sysbios_family_arm_m3_Hwi_pendSV__I)
                  0000d638    0000001a                  : BIOS.obj (.text:ti_sysbios_knl_Task_sleepTimeout__I)
                  0000d652    00000002                  : BIOS.obj (.text:xdc_runtime_SysCallback_defaultAbort)
                  0000d654    00000018     barometerservice.obj (.text:Barometer_registerAppCBs)
                  0000d66c    00000018     battservice.obj (.text:Batt_SetParameter)
                  0000d684    00000018     oad.obj (.text:CheckImageDownloadCount$12)
                  0000d69c    00000018     peripheral.obj (.text:GAPRole_StartDevice)
                  0000d6b4    00000018     peripheral.obj (.text:GAPRole_TerminateConnection)
                  0000d6cc    00000018     humidityservice.obj (.text:Humidity_registerAppCBs)
                  0000d6e4    00000018     I2C.obj (.text:I2C_Params_init)
                  0000d6fc    00000018     icall_cc2650.obj (.text:ICallPlatform_pwrDispense)
                  0000d714    00000018     icall_cc2650.obj (.text:ICallPlatform_pwrRequire)
                  0000d72c    00000018     oad.obj (.text:ICall_free$12)
                  0000d744    00000018     sensortag.obj (.text:ICall_free$41)
                  0000d75c    00000018     sensortag_oad.obj (.text:ICall_free$51)
                  0000d774    00000018     util.obj (.text:ICall_free$55)
                  0000d78c    00000018     devinfoservice.obj (.text:ICall_free$5)
                  0000d7a4    00000018     peripheral.obj (.text:ICall_freeMsg$15)
                  0000d7bc    00000018     icall_api.obj (.text:ICall_freeMsg$29)
                  0000d7d4    00000018     icall.obj (.text:ICall_freeMsg$30)
                  0000d7ec    00000018     sensortag.obj (.text:ICall_freeMsg$41)
                  0000d804    00000018     icall.obj (.text:ICall_primMalloc$30)
                  0000d81c    00000018     irtempservice.obj (.text:IRTemp_registerAppCBs)
                  0000d834    00000018     movementservice.obj (.text:Movement_registerAppCBs)
                  0000d84c    00000018     driverlib.lib : aon_rtc.obj (.text:NOROM_AONRTCCurrentCompareValueGet)
                  0000d864    00000018                   : chipinfo.obj (.text:NOROM_ChipInfo_GetPackageType)
                  0000d87c    00000018                   : osc.obj (.text:NOROM_OSCHF_TurnOnXosc)
                  0000d894    00000018                   : rfc.obj (.text:NOROM_RFCCpeIntGetAndClear)
                  0000d8ac    00000018                   : setup.obj (.text:NOROM_SetupGetTrimForAdcShModeEn)
                  0000d8c4    00000018                   : setup.obj (.text:NOROM_SetupGetTrimForAdcShVbufEn)
                  0000d8dc    00000018                   : setup.obj (.text:NOROM_SetupGetTrimForAmpcompTh1)
                  0000d8f4    00000018                   : setup.obj (.text:NOROM_SetupGetTrimForDblrLoopFilterResetVoltage)
                  0000d90c    00000018                   : setup.obj (.text:NOROM_SetupGetTrimForRcOscLfIBiasTrim)
                  0000d924    00000018                   : setup.obj (.text:NOROM_SetupGetTrimForXoscLfRegulatorAndCmirrwrRatio)
                  0000d93c    00000018     oad_target_external_flash.obj (.text:OADTarget_close)
                  0000d954    00000018     oad_target_external_flash.obj (.text:OADTarget_open)
                  0000d96c    00000018     oad.obj (.text:OAD_register)
                  0000d984    00000018     opticservice.obj (.text:Optic_registerAppCBs)
                  0000d99c    00000018     PINCC26XX.obj (.text:PIN_getConfig)
                  0000d9b4    00000018     drivers_cc26xxware.aem3 : PowerCC26XX.oem3 (.text:Power_idleFunc)
                  0000d9cc    00000018     RFCC26XX_singleMode.obj (.text:Q_pop$36)
                  0000d9e4    00000018     registerservice.obj (.text:Register_registerAppCBs)
                  0000d9fc    00000018     sensortag_batt.obj (.text:SensorTagBatt_clockHandler$43)
                  0000da14    00000018     sensortag_mov.obj (.text:SensorTagMov_clockHandler$50)
                  0000da2c    00000018     sensortag.obj (.text:SensorTag_callback$41)
                  0000da44    00000018     sensortag.obj (.text:SensorTag_clockHandler$41)
                  0000da5c    00000018     sensortag.obj (.text:SensorTag_updateAdvertisingData)
                  0000da74    00000018     ExtFlash.obj (.text:Spi_close$27)
                  0000da8c    00000018     ExtFlash.obj (.text:Spi_flash$27)
                  0000daa4    00000018     drivers_cc26xxware.aem3 : PowerCC26XX.oem3 (.text:configureRFCoreClocks)
                  0000dabc    00000018     peripheral.obj (.text:gapRole_setEvent$15)
                  0000dad4    00000018     sensortag_bar.obj (.text:initCharacteristicValue$42)
                  0000daec    00000018     sensortag_hum.obj (.text:initCharacteristicValue$47)
                  0000db04    00000018     sensortag_opt.obj (.text:initCharacteristicValue$52)
                  0000db1c    00000018     sensortag_tmp.obj (.text:initCharacteristicValue$54)
                  0000db34    00000018     rtsv7M3_T_le_eabi.lib : args_main.obj (.text)
                  0000db4c    00000018                           : ll_mul_t2.obj (.text)
                  0000db64    00000018     RFCC26XX_singleMode.obj (.text:swiFxnFsm$36)
                  0000db7c    00000018     app_ble_pem3.oem3 (.text:ti_sysbios_BIOS_rtsUnlock__I)
                  0000db94    00000018     app_ble_pem3.oem3 (.text:ti_sysbios_family_arm_cc26xx_Timer_Module__startupDone__F)
                  0000dbac    00000018     app_ble_pem3.oem3 (.text:ti_sysbios_family_arm_m3_Hwi_Module__startupDone__F)
                  0000dbc4    00000018     sysbios.aem3 : BIOS.obj (.text:ti_sysbios_family_arm_m3_Hwi_plug__E)
                  0000dbdc    00000018                  : BIOS.obj (.text:ti_sysbios_gates_GateMutex_leave__E)
                  0000dbf4    00000018                  : BIOS.obj (.text:ti_sysbios_knl_Swi_or__E)
                  0000dc0c    00000018                  : BIOS.obj (.text:ti_sysbios_knl_Task_unblock__E)
                  0000dc24    00000018                  : BIOS.obj (.text:xdc_runtime_Core_destructObject__I)
                  0000dc3c    00000018                  : BIOS.obj (.text:xdc_runtime_System_exit__E)
                  0000dc54    00000016     main.obj (.text:AssertHandler)
                  0000dc6a    00000016     icall.obj (.text:ICall_abort$30)
                  0000dc80    00000016     icall.obj (.text:ICall_leaveCSImpl)
                  0000dc96    00000016     icall.obj (.text:ICall_primStopTimer$30)
                  0000dcac    00000016     ble_user_config.obj (.text:driverTable_fnSpinlock)
                  0000dcc2    00000016     app_ble_pem3.oem3 (.text:ti_sysbios_BIOS_exitFunc__I)
                  0000dcd8    00000016     sysbios.aem3 : BIOS.obj (.text:ti_sysbios_knl_Clock_start__E)
                  0000dcee    00000002                  : BIOS.obj (.text:xdc_runtime_SysCallback_defaultExit)
                  0000dcf0    00000014     battservice.obj (.text:Batt_Register)
                  0000dd04    00000014     ccservice.obj (.text:CcService_registerAppCBs)
                  0000dd18    00000014     devinfoservice.obj (.text:DevInfo_AddService)
                  0000dd2c    00000014     ExtFlash.obj (.text:ExtFlash_powerDown$27)
                  0000dd40    00000014     ioservice.obj (.text:Io_getParameter)
                  0000dd54    00000014     ioservice.obj (.text:Io_registerAppCBs)
                  0000dd68    00000014     driverlib.lib : aon_rtc.obj (.text:NOROM_AONRTCCurrent64BitValueGet)
                  0000dd7c    00000014                   : chipinfo.obj (.text:NOROM_ThisCodeIsBuiltForCC26xxHwRev22AndLater_HaltIfViolated)
                  0000dd90    00000014     oad_target_external_flash.obj (.text:OADTarget_writeFlash)
                  0000dda4    00000014     PINCC26XX.obj (.text:PINCC26XX_getInputValue$37)
                  0000ddb8    00000014     PINCC26XX.obj (.text:PINCC26XX_getOutputValue$37)
                  0000ddcc    00000014     RFCC26XX_singleMode.obj (.text:RF_Params_init)
                  0000dde0    00000014     registerservice.obj (.text:Register_addService)
                  0000ddf4    00000014     SensorMpu9250.obj (.text:SensorMpu9250_Callback$23)
                  0000de08    00000014     SensorMpu9250.obj (.text:SensorMpu9250_powerIsOn)
                  0000de1c    00000014     SensorMpu9250.obj (.text:SensorMpu9250_registerCallback)
                  0000de30    00000014     sensortag_batt.obj (.text:SensorTagBatt_processSensorEvent)
                  0000de44    00000014     sensortag_keys.obj (.text:SensorTagKeys_reset)
                  0000de58    00000014     SensorUtil.obj (.text:SensorUtil_convertToLe)
                  0000de6c    00000014     ExtFlash.obj (.text:extFlashDeselect$27)
                  0000de80    00000014     ExtFlash.obj (.text:extFlashSelect$27)
                  0000de94    00000014     rtsv7M3_T_le_eabi.lib : _lock.obj (.text)
                  0000dea8    00000014                           : strlen.obj (.text)
                  0000debc    00000014     icall_api.obj (.text:setICallCmdEvtHdr$29)
                  0000ded0    00000014     app_ble_pem3.oem3 (.text:ti_sysbios_family_arm_m3_Hwi_Object__get__S)
                  0000dee4    00000014     sysbios.aem3 : BIOS.obj (.text:ti_sysbios_family_arm_m3_Hwi_switchFromBootStack__E)
                  0000def8    00000014     app_ble_pem3.oem3 (.text:ti_sysbios_knl_Clock_doTick__I)
                  0000df0c    00000014     app_ble_pem3.oem3 (.text:ti_sysbios_knl_Swi_Object__get__S)
                  0000df20    00000012     ExtFlash.obj (.text:ExtFlash_test)
                  0000df32    00000012     gattservapp_util.obj (.text:GATTServApp_FindAttr)
                  0000df44    00000012     RFCC26XX_singleMode.obj (.text:RF_getCmdOp)
                  0000df56    00000012     sysbios.aem3 : BIOS.obj (.text:ti_sysbios_hal_Hwi_Module_startup__E)
                  0000df68    00000012     app_ble_pem3.oem3 (.text:xdc_runtime_Startup_exec__I)
                  0000df7a    00000002     sysbios.aem3 : BIOS.obj (.text:xdc_runtime_System_abortSpin__E)
                  0000df7c    00000010     ccservice.obj (.text:CcService_getParameter)
                  0000df8c    00000010     RFCC26XX_singleMode.obj (.text:FsmDispatch$36)
                  0000df9c    00000010     peripheral.obj (.text:GAPRole_RegisterAppCBs)
                  0000dfac    00000010     icall_api.obj (.text:GAP_EndDiscoverable)
                  0000dfbc    00000010     gattservapp_util.obj (.text:GATTServApp_ReadCharCfg)
                  0000dfcc    00000010     icall_cc2650.obj (.text:ICallPlatform_pwrGetXOSCStartupTime)
                  0000dfdc    00000010     icall.obj (.text:ICall_primGetTickPeriod$30)
                  0000dfec    00000010     icall.obj (.text:ICall_taskEntry$30)
                  0000dffc    00000010     driverlib.lib : rfc.obj (.text:NOROM_RFCRfTrimSet)
                  0000e00c    00000010                   : setup.obj (.text:NOROM_SetupGetTrimForXoscHfFastStart)
                  0000e01c    00000010                   : setup.obj (.text:NOROM_SetupGetTrimForXoscHfIbiastherm)
                  0000e02c    00000010     oad_target_external_flash.obj (.text:OADTarget_getCrc)
                  0000e03c    00000010     oad_target_external_flash.obj (.text:OADTarget_setCrc)
                  0000e04c    00000010     oad_target_external_flash.obj (.text:OADTarget_systemReset)
                  0000e05c    00000010     ble_user_config.obj (.text:RegisterAssertCback)
                  0000e06c    00000010     sensortag_register.obj (.text:SensorTagRegister_init)
                  0000e07c    00000010     util.obj (.text:Util_isActive)
                  0000e08c    00000010     I2CCC26XX.obj (.text:i2cPostNotify$39)
                  0000e09c    00000010     sysbios.aem3 : BIOS.obj (.text:ti_sysbios_BIOS_exit__E)
                  0000e0ac    00000010                  : BIOS.obj (.text:ti_sysbios_BIOS_getCpuFreq__E)
                  0000e0bc    00000010                  : BIOS.obj (.text:ti_sysbios_BIOS_setThreadType__E)
                  0000e0cc    00000010                  : BIOS.obj (.text:ti_sysbios_BIOS_start__E)
                  0000e0dc    00000010                  : BIOS.obj (.text:ti_sysbios_family_arm_m3_Hwi_post__E)
                  0000e0ec    00000010                  : m3_TaskSupport_asm.obj (.text:ti_sysbios_family_arm_m3_TaskSupport_glue)
                  0000e0fc    00000010                  : m3_TaskSupport_asm.obj (.text:ti_sysbios_family_arm_m3_TaskSupport_swap__E)
                  0000e10c    00000010     app_ble_pem3.oem3 (.text:ti_sysbios_hal_Hwi_HwiProxy_Object__create__S)
                  0000e11c    00000010     sysbios.aem3 : BIOS.obj (.text:ti_sysbios_knl_Semaphore_Instance_finalize__E)
                  0000e12c    00000010                  : BIOS.obj (.text:ti_sysbios_knl_Swi_disable__E)
                  0000e13c    00000010                  : BIOS.obj (.text:ti_sysbios_knl_Swi_enabled__E)
                  0000e14c    00000010     app_ble_pem3.oem3 (.text:ti_sysbios_knl_Task_Object__get__S)
                  0000e15c    00000010     sysbios.aem3 : BIOS.obj (.text:ti_sysbios_knl_Task_disable__E)
                  0000e16c    00000010                  : BIOS.obj (.text:xdc_runtime_Gate_leaveSystem__E)
                  0000e17c    00000010                  : BIOS.obj (.text:xdc_runtime_SysCallback_abort__E)
                  0000e18c    00000010                  : BIOS.obj (.text:xdc_runtime_SysCallback_exit__E)
                  0000e19c    0000000e     icall_api.obj (.text:GATT_Indication)
                  0000e1aa    0000000e     icall_cc2650.obj (.text:ICallPlatform_pwrGetTransitionState)
                  0000e1b8    0000000e     icall_cc2650.obj (.text:ICallPlatform_pwrIsStableXOSCHF)
                  0000e1c6    0000000e     icall.obj (.text:ICall_primDisableMInt$30)
                  0000e1d4    0000000e     icall.obj (.text:ICall_primEnableMInt$30)
                  0000e1e2    0000000e     icall.obj (.text:ICall_primFreeMsg$30)
                  0000e1f0    0000000e     icall.obj (.text:ICall_primGetTicks$30)
                  0000e1fe    0000000e     driverlib.lib : setup.obj (.text:NOROM_SetupSignExtendVddrTrimValue)
                  0000e20c    0000000e                   : vims.obj (.text:NOROM_VIMSModeGet)
                  0000e21a    0000000e     oad_target_external_flash.obj (.text:OADTarget_imageAddress)
                  0000e228    0000000e     SPICC26XXDMA.obj (.text:SPICC26XXDMA_init)
                  0000e236    0000000e     SensorI2C.obj (.text:SensorI2C_readReg)
                  0000e244    0000000e     util.obj (.text:Util_constructQueue)
                  0000e252    0000000e     rtsv7M3_T_le_eabi.lib : copy_decompress_none.obj (.text:decompress:none)
                  0000e260    0000000e     icall_api.obj (.text:matchGSARegisterServiceCS$29)
                  0000e26e    0000000e     icall_api.obj (.text:matchGapLinkEstCS$29)
                  0000e27c    0000000e     icall_api.obj (.text:matchLinkDBNumConnsCS$29)
                  0000e28a    0000000e     icall_api.obj (.text:setDispatchCmdEvtHdr$29)
                  0000e298    0000000e     sysbios.aem3 : BIOS.obj (.text:ti_sysbios_knl_Queue_empty__E)
                  0000e2a6    0000000e                  : BIOS.obj (.text:ti_sysbios_knl_Queue_remove__E)
                  0000e2b4    0000000e                  : BIOS.obj (.text:xdc_runtime_HeapMin_Instance_init__E)
                  0000e2c2    00000002                  : BIOS.obj (.text:xdc_runtime_System_exitSpin__E)
                  0000e2c4    0000000c     RFCC26XX_singleMode.obj (.text:FsmNextState$36)
                  0000e2d0    0000000c     icall_api.obj (.text:GAP_MakeDiscoverable)
                  0000e2dc    0000000c     icall_api.obj (.text:GAP_TerminateAuth)
                  0000e2e8    0000000c     icall_api.obj (.text:GAP_UpdateLinkParamReq)
                  0000e2f4    0000000c     icall_api.obj (.text:GAP_UpdateLinkParamReqReply)
                  0000e300    0000000c     icall_api.obj (.text:GGS_SetParameter)
                  0000e30c    0000000c     icall.obj (.text:ICall_clockFunc$30)
                  0000e318    0000000c     icall.obj (.text:ICall_primDisableInt$30)
                  0000e324    0000000c     icall.obj (.text:ICall_primEnableInt$30)
                  0000e330    0000000c     icall.obj (.text:ICall_primFree$30)
                  0000e33c    0000000c     icall.obj (.text:ICall_primSignal$30)
                  0000e348    0000000c     driverlib.lib : cpu.obj (.text:NOROM_CPUcpsid)
                  0000e354    0000000c                   : cpu.obj (.text:NOROM_CPUcpsie)
                  0000e360    0000000c     drivers_cc26xxware.aem3 : PowerCC26XX.oem3 (.text:Power_getConstraintMask)
                  0000e36c    0000000c                             : PowerCC26XX.oem3 (.text:Power_getDependencyCount)
                  0000e378    0000000c                             : PowerCC26XX.oem3 (.text:Power_getTransitionState)
                  0000e384    0000000c     SensorI2C.obj (.text:SensorI2C_deselect)
                  0000e390    0000000c     sensortag_conn_ctrl.obj (.text:SensorTagConnectionControl_init)
                  0000e39c    0000000c     sensortag.obj (.text:SensorTag_processGATTMsg$41)
                  0000e3a8    0000000c     sensortag.obj (.text:SensorTag_processStackMsg$41)
                  0000e3b4    0000000c     sensortag.obj (.text:SensorTag_testResult)
                  0000e3c0    0000000c     icall_api.obj (.text:matchProfileSetParamCS$29)
                  0000e3cc    0000000c     SPICC26XXDMA.obj (.text:spiPostNotify$35)
                  0000e3d8    0000000c     sysbios.aem3 : BIOS.obj (.text:ti_sysbios_BIOS_getThreadType__E)
                  0000e3e4    0000000c     app_ble_pem3.oem3 (.text:ti_sysbios_family_arm_m3_Hwi_Params__init__S)
                  0000e3f0    0000000c     sysbios.aem3 : BIOS.obj (.text:ti_sysbios_family_arm_m3_Hwi_disableFxn__E)
                  0000e3fc    0000000c                  : BIOS.obj (.text:ti_sysbios_family_arm_m3_Hwi_enableFxn__E)
                  0000e408    0000000c                  : BIOS.obj (.text:ti_sysbios_family_arm_m3_TaskSupport_getStackAlignment__E)
                  0000e414    0000000c                  : BIOS.obj (.text:ti_sysbios_gates_GateHwi_enter__E)
                  0000e420    0000000c     app_ble_pem3.oem3 (.text:ti_sysbios_hal_Hwi_Params__init__S)
                  0000e42c    0000000c     app_ble_pem3.oem3 (.text:ti_sysbios_knl_Clock_Params__init__S)
                  0000e438    0000000c     app_ble_pem3.oem3 (.text:ti_sysbios_knl_Queue_Object__get__S)
                  0000e444    0000000c     sysbios.aem3 : BIOS.obj (.text:ti_sysbios_knl_Queue_dequeue__E)
                  0000e450    0000000c                  : BIOS.obj (.text:ti_sysbios_knl_Queue_enqueue__E)
                  0000e45c    0000000c     app_ble_pem3.oem3 (.text:ti_sysbios_knl_Semaphore_Params__init__S)
                  0000e468    0000000c     app_ble_pem3.oem3 (.text:ti_sysbios_knl_Swi_Params__init__S)
                  0000e474    0000000c     sysbios.aem3 : BIOS.obj (.text:ti_sysbios_knl_Swi_getTrigger__E)
                  0000e480    0000000c     app_ble_pem3.oem3 (.text:ti_sysbios_knl_Task_Params__init__S)
                  0000e48c    0000000c     sysbios.aem3 : BIOS.obj (.text:ti_sysbios_knl_Task_self__E)
                  0000e498    0000000c                  : BIOS.obj (.text:xdc_runtime_Gate_enterSystem__E)
                  0000e4a4    0000000c                  : BIOS.obj (.text:xdc_runtime_HeapMin_getStats__E)
                  0000e4b0    0000000c                  : BIOS.obj (.text:xdc_runtime_Memory_calloc__E)
                  0000e4bc    0000000c                  : BIOS.obj (.text:xdc_runtime_Memory_getMaxDefaultTypeAlign__E)
                  0000e4c8    0000000c                  : BIOS.obj (.text:xdc_runtime_Startup_rtsDone__E)
                  0000e4d4    0000000a     I2CCC26XX.obj (.text:I2CCC26XX_init)
                  0000e4de    0000000a     I2C.obj (.text:I2C_close)
                  0000e4e8    0000000a     I2C.obj (.text:I2C_transfer)
                  0000e4f2    0000000a     icall_cc2650.obj (.text:ICallPlatform_pwrSwitchXOSCHF)
                  0000e4fc    0000000a     icall.obj (.text:ICall_primE2S$30)
                  0000e506    0000000a     drivers_cc26xxware.aem3 : List.oem3 (.text:List_empty)
                  0000e510    0000000a     oad_target_external_flash.obj (.text:OADTarget_readFlash)
                  0000e51a    0000000a     SPI.obj (.text:SPI_close)
                  0000e524    0000000a     SPI.obj (.text:SPI_transfer)
                  0000e52e    0000000a     sensortag.obj (.text:SensorTag_charValueChangeCB)
                  0000e538    0000000a     sensortag.obj (.text:SensorTag_stateChangeCB$41)
                  0000e542    0000000a     UDMACC26XX.obj (.text:UDMACC26XX_hwiIntFxn)
                  0000e54c    0000000a     app_ble_pem3.oem3 (.text:xdc_runtime_IHeap_alloc)
                  0000e556    00000008     I2CCC26XX.obj (.text:I2CCC26XX_blockingCallback$39)
                  0000e55e    00000008     RFCC26XX_singleMode.obj (.text:RF_flushCmd)
                  0000e566    00000008     SPICC26XXDMA.obj (.text:SPICC26XXDMA_transferCallback$35)
                  0000e56e    00000008     sensortag_conn_ctrl.obj (.text:ccChangeCB$45)
                  0000e576    00000008     sensortag_io.obj (.text:ioChangeCB$48)
                  0000e57e    00000008     sensortag_register.obj (.text:registerChangeCB$53)
                  0000e586    00000008     sensortag_mov.obj (.text:sensorChangeCB$50)
                  0000e58e    00000008     sensortag_bar.obj (.text:sensorConfigChangeCB$42)
                  0000e596    00000008     sensortag_batt.obj (.text:sensorConfigChangeCB$43)
                  0000e59e    00000008     sensortag_hum.obj (.text:sensorConfigChangeCB$47)
                  0000e5a6    00000008     sensortag_opt.obj (.text:sensorConfigChangeCB$52)
                  0000e5ae    00000008     sensortag_tmp.obj (.text:sensorConfigChangeCB$54)
                  0000e5b6    00000008     sysbios.aem3 : BIOS.obj (.text:ti_sysbios_family_arm_m3_Hwi_doSwiRestore__I)
                  0000e5be    00000008                  : BIOS.obj (.text:ti_sysbios_family_arm_m3_Hwi_startup__E)
                  0000e5c6    00000008                  : BIOS.obj (.text:ti_sysbios_knl_Idle_loop__E)
                  0000e5ce    00000006     icall_api.obj (.text:GGS_AddService)
                  0000e5d4    00000006     I2CCC26XX.obj (.text:I2CCC26XX_control)
                  0000e5da    00000006     icall.obj (.text:ICall_mallocImpl)
                  0000e5e0    00000006     driverlib.lib : cpu.obj (.text:NOROM_CPUdelay)
                  0000e5e6    00000006     oad_target_external_flash.obj (.text:OADTarget_eraseFlash)
                  0000e5ec    00000006     PINCC26XX.obj (.text:PIN_registerIntCb)
                  0000e5f2    00000006     SensorOpt3001.obj (.text:SensorOpt3001_init)
                  0000e5f8    00000006     SensorTmp007.obj (.text:SensorTmp007_init)
                  0000e5fe    00000006     RFCC26XX_singleMode.obj (.text:clkInactivityFxn$36)
                  0000e604    00000006     rtsv7M3_T_le_eabi.lib : copy_decompress_rle.obj (.text:decompress:rle24)
                  0000e60a    00000006     icall_api.obj (.text:gattAddService$29)
                  0000e610    00000006     icall_api.obj (.text:matchBondMgrSetParamCS$29)
                  0000e616    00000006     icall_api.obj (.text:matchGGSSetParamCS$29)
                  0000e61c    00000006     icall_api.obj (.text:matchGapConnParamUpdateReplyCS$29)
                  0000e622    00000006     icall_api.obj (.text:matchGapDeviceInitCS$29)
                  0000e628    00000006     icall_api.obj (.text:matchGapEndDiscoverableCS$29)
                  0000e62e    00000006     icall_api.obj (.text:matchGapGetParamCS$29)
                  0000e634    00000006     icall_api.obj (.text:matchGapMakeDiscoverableCS$29)
                  0000e63a    00000006     icall_api.obj (.text:matchGapSetParamCS$29)
                  0000e640    00000006     icall_api.obj (.text:matchGapTerminateAuthCS$29)
                  0000e646    00000006     icall_api.obj (.text:matchGapTerminateLinkReqCS$29)
                  0000e64c    00000006     icall_api.obj (.text:matchGapUpdateAdvDataCS$29)
                  0000e652    00000006     icall_api.obj (.text:matchGapUpdateLinkParamReqCS$29)
                  0000e658    00000006     icall_api.obj (.text:matchUtilNvReadCS$29)
                  0000e65e    00000006     icall_api.obj (.text:matchUtilNvWriteCS$29)
                  0000e664    00000006     sysbios.aem3 : BIOS.obj (.text:ti_sysbios_family_arm_m3_Hwi_doTaskRestore__I)
                  0000e66a    00000006                  : BIOS.obj (.text:ti_sysbios_family_arm_m3_Hwi_restoreFxn__E)
                  0000e670    00000006                  : BIOS.obj (.text:ti_sysbios_family_arm_m3_Hwi_setFunc__E)
                  0000e676    00000006                  : BIOS.obj (.text:ti_sysbios_gates_GateHwi_leave__E)
                  0000e67c    00000006                  : BIOS.obj (.text:ti_sysbios_knl_Queue_Instance_init__E)
                  0000e682    00000006                  : BIOS.obj (.text:ti_sysbios_knl_Queue_elemClear__E)
                  0000e688    00000006                  : BIOS.obj (.text:ti_sysbios_knl_Swi_startup__E)
                  0000e68e    00000006                  : BIOS.obj (.text:ti_sysbios_knl_Task_enable__E)
                  0000e694    00000006                  : BIOS.obj (.text:xdc_runtime_System_Module_startup__E)
                  0000e69a    00000004     icall_api.obj (.text:GATTServApp_AddService)
                  0000e69e    00000004     tirtosport.aem3 : HwiP_tirtos.oem3 (.text:HwiP_disable)
                  0000e6a2    00000004     icall.obj (.text:ICall_primAbort$30)
                  0000e6a6    00000004     drivers_cc26xxware.aem3 : List.oem3 (.text:List_head)
                  0000e6aa    00000004                             : List.oem3 (.text:List_next)
                  0000e6ae    00000004     RFCC26XX_singleMode.obj (.text:Q_peek$36)
                  0000e6b2    00000004     util.obj (.text:Util_startClock)
                  0000e6b6    00000004     util.obj (.text:Util_stopClock)
                  0000e6ba    00000004     peripheral.obj (.text:gapRole_SetupGAP$15)
                  0000e6be    00000004     drivers_cc26xxware.aem3 : PowerCC26XX.oem3 (.text:nopResourceHandler)
                  0000e6c2    00000004     app_ble_pem3.oem3 (.text:ti_sysbios_BIOS_RtsGateProxy_enter__E)
                  0000e6c6    00000004     app_ble_pem3.oem3 (.text:ti_sysbios_BIOS_RtsGateProxy_leave__E)
                  0000e6ca    00000004     sysbios.aem3 : BIOS.obj (.text:ti_sysbios_family_arm_cc26xx_Timer_getCount64__E)
                  0000e6ce    00000004                  : BIOS.obj (.text:ti_sysbios_family_arm_cc26xx_Timer_setPeriod__E)
                  0000e6d2    00000004     app_ble_pem3.oem3 (.text:ti_sysbios_family_arm_m3_Hwi_destruct)
                  0000e6d6    00000004     app_ble_pem3.oem3 (.text:ti_sysbios_family_arm_m3_TaskSupport_Module__startupDone__S)
                  0000e6da    00000004     sysbios.aem3 : BIOS.obj (.text:ti_sysbios_gates_GateHwi_query__E)
                  0000e6de    00000004                  : BIOS.obj (.text:ti_sysbios_gates_GateMutex_query__E)
                  0000e6e2    00000004     app_ble_pem3.oem3 (.text:ti_sysbios_knl_Clock_TimerProxy_getCurrentTick__E)
                  0000e6e6    00000004     app_ble_pem3.oem3 (.text:ti_sysbios_knl_Clock_TimerProxy_getMaxTicks__E)
                  0000e6ea    00000004     app_ble_pem3.oem3 (.text:ti_sysbios_knl_Clock_TimerProxy_setNextTick__E)
                  0000e6ee    00000004     sysbios.aem3 : BIOS.obj (.text:ti_sysbios_knl_Clock_isActive__E)
                  0000e6f2    00000004                  : BIOS.obj (.text:ti_sysbios_knl_Clock_removeI__E)
                  0000e6f6    00000004                  : BIOS.obj (.text:ti_sysbios_knl_Clock_setPeriod__E)
                  0000e6fa    00000004                  : BIOS.obj (.text:ti_sysbios_knl_Clock_setTimeout__E)
                  0000e6fe    00000004     app_ble_pem3.oem3 (.text:ti_sysbios_knl_Queue_destruct)
                  0000e702    00000004     sysbios.aem3 : BIOS.obj (.text:ti_sysbios_knl_Queue_head__E)
                  0000e706    00000004                  : BIOS.obj (.text:ti_sysbios_knl_Queue_insert__E)
                  0000e70a    00000004                  : BIOS.obj (.text:ti_sysbios_knl_Queue_next__E)
                  0000e70e    00000004     app_ble_pem3.oem3 (.text:ti_sysbios_knl_Semaphore_destruct)
                  0000e712    00000004     app_ble_pem3.oem3 (.text:ti_sysbios_knl_Swi_destruct)
                  0000e716    00000004     sysbios.aem3 : BIOS.obj (.text:ti_sysbios_knl_Swi_postInit__I)
                  0000e71a    00000004                  : BIOS.obj (.text:ti_sysbios_knl_Task_startup__E)
                  0000e71e    00000004                  : BIOS.obj (.text:xdc_runtime_HeapMin_isBlocking__E)
                  0000e722    00000004     app_ble_pem3.oem3 (.text:xdc_runtime_System_Module_GateProxy_enter__E)
                  0000e726    00000004     app_ble_pem3.oem3 (.text:xdc_runtime_System_Module_GateProxy_leave__E)

.const     0    0000e72c    00000b84     
                  0000e72c    000000cc     icall.obj (.const:$O25$$)
                  0000e7f8    00000068     board.obj (.const:BoardGpioInitTable)
                  0000e860    0000004c     oad.obj (.const:$O11$$)
                  0000e8ac    0000004c     drivers_cc26xxware.aem3 : PowerCC26XX.oem3 (.const:resourceDB)
                  0000e8f8    0000004c     ble_user_config.obj (.const:rfDriverTable)
                  0000e944    0000003c     sensortag.obj (.const:$O32$$)
                  0000e980    0000003c     app_ble_pem3.oem3 (.const:ti_sysbios_knl_Task_Object__PARAMS__C)
                  0000e9bc    00000038     SPICC26XXDMA.obj (.const:$O27$$)
                  0000e9f4    00000038     board.obj (.const:spiCC26XXDMAHWAttrs)
                  0000ea2c    00000030     app_ble_pem3.oem3 (.const:ti_sysbios_family_arm_m3_Hwi_Object__PARAMS__C)
                  0000ea5c    0000002c     gatt_uuid.obj (.const:$O5$$)
                  0000ea88    0000002c     app_ble_pem3.oem3 (.const:ti_sysbios_hal_Hwi_Object__PARAMS__C)
                  0000eab4    00000028     app_ble_pem3.oem3 (.const:ti_sysbios_knl_Swi_Object__PARAMS__C)
                  0000eadc    00000028     app_ble_pem3.oem3 (.const:xdc_runtime_HeapMin_Module__FXNS__C)
                  0000eb04    00000027     ble_user_config.obj (.const:txPowerTable)
                  0000eb2b    00000001     app_ble_pem3.oem3 (.const:xdc_runtime_Error_policy__C)
                  0000eb2c    00000024     board.obj (.const:SPI_config)
                  0000eb50    00000024     app_ble_pem3.oem3 (.const:ti_sysbios_gates_GateHwi_Module__FXNS__C)
                  0000eb74    00000024     app_ble_pem3.oem3 (.const:ti_sysbios_gates_GateMutex_Module__FXNS__C)
                  0000eb98    00000024     app_ble_pem3.oem3 (.const:ti_sysbios_knl_Clock_Object__PARAMS__C)
                  0000ebbc    00000024     app_ble_pem3.oem3 (.const:ti_sysbios_knl_Semaphore_Object__PARAMS__C)
                  0000ebe0    00000020     SPI.obj (.const:SPI_defaultParams)
                  0000ec00    00000020     app_ble_pem3.oem3 (.const:ti_sysbios_family_arm_m3_Hwi_Object__DESC__C)
                  0000ec20    00000020     app_ble_pem3.oem3 (.const:ti_sysbios_gates_GateHwi_Object__DESC__C)
                  0000ec40    00000020     app_ble_pem3.oem3 (.const:ti_sysbios_gates_GateMutex_Object__DESC__C)
                  0000ec60    00000020     app_ble_pem3.oem3 (.const:ti_sysbios_hal_Hwi_Object__DESC__C)
                  0000ec80    00000020     app_ble_pem3.oem3 (.const:ti_sysbios_knl_Clock_Object__DESC__C)
                  0000eca0    00000020     app_ble_pem3.oem3 (.const:ti_sysbios_knl_Queue_Object__DESC__C)
                  0000ecc0    00000020     app_ble_pem3.oem3 (.const:ti_sysbios_knl_Semaphore_Object__DESC__C)
                  0000ece0    00000020     app_ble_pem3.oem3 (.const:ti_sysbios_knl_Swi_Object__DESC__C)
                  0000ed00    00000020     app_ble_pem3.oem3 (.const:ti_sysbios_knl_Task_Object__DESC__C)
                  0000ed20    00000020     app_ble_pem3.oem3 (.const:xdc_runtime_HeapMin_Object__DESC__C)
                  0000ed40    00000020     app_ble_pem3.oem3 (.const:xdc_runtime_HeapMin_Object__PARAMS__C)
                  0000ed60    0000001c     SPICC26XXDMA.obj (.const:SPICC26XXDMA_fxnTable)
                  0000ed7c    0000001c     app_ble_pem3.oem3 (.const:xdc_runtime_Startup_sfxnTab__A)
                  0000ed98    00000018     I2CCC26XX.obj (.const:I2CCC26XX_fxnTable)
                  0000edb0    00000018     board.obj (.const:I2C_config)
                  0000edc8    00000018     board.obj (.const:i2cCC26xxHWAttrs)
                  0000ede0    00000018     app_ble_pem3.oem3 (.const:ti_sysbios_gates_GateHwi_Object__PARAMS__C)
                  0000edf8    00000018     app_ble_pem3.oem3 (.const:ti_sysbios_gates_GateMutex_Object__PARAMS__C)
                  0000ee10    00000018     app_ble_pem3.oem3 (.const:ti_sysbios_knl_Queue_Object__PARAMS__C)
                  0000ee28    00000014     RFCC26XX_singleMode.obj (.const:RF_defaultParams$36)
                  0000ee3c    00000010     ccservice.obj (.const:.string:ccServiceServUUID)
                  0000ee4c    00000010     ccservice.obj (.const:.string:ccServicechar1UUID)
                  0000ee5c    00000010     ccservice.obj (.const:.string:ccServicechar2UUID)
                  0000ee6c    00000010     ccservice.obj (.const:.string:ccServicechar3UUID)
                  0000ee7c    00000010     ioservice.obj (.const:.string:ioConfUUID)
                  0000ee8c    00000010     ioservice.obj (.const:.string:ioDataUUID)
                  0000ee9c    00000010     ioservice.obj (.const:.string:ioServUUID)
                  0000eeac    00000010     oad.obj (.const:.string:oadServUUID$12)
                  0000eebc    00000010     registerservice.obj (.const:.string:registerAddressUUID$16)
                  0000eecc    00000010     registerservice.obj (.const:.string:registerDataUUID$16)
                  0000eedc    00000010     registerservice.obj (.const:.string:registerDeviceIDUUID$16)
                  0000eeec    00000010     irtempservice.obj (.const:.string:sensorCfgUUID$10)
                  0000eefc    00000010     movementservice.obj (.const:.string:sensorCfgUUID$11)
                  0000ef0c    00000010     opticservice.obj (.const:.string:sensorCfgUUID$14)
                  0000ef1c    00000010     barometerservice.obj (.const:.string:sensorCfgUUID$2)
                  0000ef2c    00000010     humidityservice.obj (.const:.string:sensorCfgUUID$8)
                  0000ef3c    00000010     irtempservice.obj (.const:.string:sensorDataUUID$10)
                  0000ef4c    00000010     movementservice.obj (.const:.string:sensorDataUUID$11)
                  0000ef5c    00000010     opticservice.obj (.const:.string:sensorDataUUID$14)
                  0000ef6c    00000010     barometerservice.obj (.const:.string:sensorDataUUID$2)
                  0000ef7c    00000010     humidityservice.obj (.const:.string:sensorDataUUID$8)
                  0000ef8c    00000010     irtempservice.obj (.const:.string:sensorPeriodUUID$10)
                  0000ef9c    00000010     movementservice.obj (.const:.string:sensorPeriodUUID$11)
                  0000efac    00000010     opticservice.obj (.const:.string:sensorPeriodUUID$14)
                  0000efbc    00000010     barometerservice.obj (.const:.string:sensorPeriodUUID$2)
                  0000efcc    00000010     humidityservice.obj (.const:.string:sensorPeriodUUID$8)
                  0000efdc    00000010     irtempservice.obj (.const:.string:sensorServiceUUID$10)
                  0000efec    00000010     movementservice.obj (.const:.string:sensorServiceUUID$11)
                  0000effc    00000010     opticservice.obj (.const:.string:sensorServiceUUID$14)
                  0000f00c    00000010     registerservice.obj (.const:.string:sensorServiceUUID$16)
                  0000f01c    00000010     barometerservice.obj (.const:.string:sensorServiceUUID$2)
                  0000f02c    00000010     humidityservice.obj (.const:.string:sensorServiceUUID$8)
                  0000f03c    00000010     I2C.obj (.const:I2C_defaultParams)
                  0000f04c    00000010     board.obj (.const:PowerCC26XX_config)
                  0000f05c    00000010     board.obj (.const:TRNGCC26XX_config)
                  0000f06c    00000010     board.obj (.const:UDMACC26XX_config)
                  0000f07c    0000000e     app_ble_pem3.oem3 (.const:xdc_runtime_Startup_sfxnRts__A)
                  0000f08a    0000000d     oad.obj (.const:.string:oadImgIdentifyDesc$12)
                  0000f097    00000001     --HOLE-- [fill = 0]
                  0000f098    0000000c     battservice.obj (.const:battCBs)
                  0000f0a4    0000000c     ccservice.obj (.const:ccServiceCBs)
                  0000f0b0    0000000c     devinfoservice.obj (.const:devInfoCBs)
                  0000f0bc    0000000c     ioservice.obj (.const:ioCBs)
                  0000f0c8    0000000c     irtempservice.obj (.const:sensorCBs$10)
                  0000f0d4    0000000c     movementservice.obj (.const:sensorCBs$11)
                  0000f0e0    0000000c     opticservice.obj (.const:sensorCBs$14)
                  0000f0ec    0000000c     registerservice.obj (.const:sensorCBs$16)
                  0000f0f8    0000000c     barometerservice.obj (.const:sensorCBs$2)
                  0000f104    0000000c     humidityservice.obj (.const:sensorCBs$8)
                  0000f110    0000000c     simplekeys.obj (.const:skCBs)
                  0000f11c    0000000c     ble_user_config.obj (.const:trngDriverTable)
                  0000f128    0000000b     oad.obj (.const:.string:oadStatusDesc$12)
                  0000f133    0000000a     oad.obj (.const:.string:oadImgBlockDesc$12)
                  0000f13d    0000000a     oad.obj (.const:.string:oadImgCountDesc$12)
                  0000f147    00000001     --HOLE-- [fill = 0]
                  0000f148    00000008     ExtFlash.obj (.const:$O22$$)
                  0000f150    00000008     battservice.obj (.const:battService$3)
                  0000f158    00000008     I2CCC26XX.obj (.const:bitRate$39)
                  0000f160    00000008     ccservice.obj (.const:ccServiceService$4)
                  0000f168    00000008     devinfoservice.obj (.const:devInfoService$5)
                  0000f170    00000008     ioservice.obj (.const:ioService$9)
                  0000f178    00000008     oad.obj (.const:oadService$12)
                  0000f180    00000008     irtempservice.obj (.const:sensorService$10)
                  0000f188    00000008     movementservice.obj (.const:sensorService$11)
                  0000f190    00000008     opticservice.obj (.const:sensorService$14)
                  0000f198    00000008     registerservice.obj (.const:sensorService$16)
                  0000f1a0    00000008     barometerservice.obj (.const:sensorService$2)
                  0000f1a8    00000008     humidityservice.obj (.const:sensorService$8)
                  0000f1b0    00000008     simplekeys.obj (.const:skService$17)
                  0000f1b8    00000008     app_ble_pem3.oem3 (.const:ti_sysbios_knl_Idle_funcList__C)
                  0000f1c0    00000008     board.obj (.const:udmaHWAttrs)
                  0000f1c8    00000008     app_ble_pem3.oem3 (.const:xdc_runtime_Startup_firstFxns__A)
                  0000f1d0    00000008     app_ble_pem3.oem3 (.const:xdc_runtime_Startup_firstFxns__C)
                  0000f1d8    00000008     app_ble_pem3.oem3 (.const:xdc_runtime_Startup_lastFxns__C)
                  0000f1e0    00000006     ble_user_config.obj (.const:txPwrTbl)
                  0000f1e6    00000002     battservice.obj (.const:.string:battLevelUUID)
                  0000f1e8    00000004     board.obj (.const:TRNGCC26XXHWAttrs)
                  0000f1ec    00000004     icall_cc2650.obj (.const:events$1$31)
                  0000f1f0    00000004     app_ble_pem3.oem3 (.const:ti_sysbios_family_arm_cc26xx_Timer_startupNeeded__C)
                  0000f1f4    00000004     app_ble_pem3.oem3 (.const:ti_sysbios_family_arm_m3_Hwi_E_alreadyDefined__C)
                  0000f1f8    00000004     app_ble_pem3.oem3 (.const:ti_sysbios_family_arm_m3_Hwi_NUM_INTERRUPTS__C)
                  0000f1fc    00000004     app_ble_pem3.oem3 (.const:ti_sysbios_family_arm_m3_Hwi_Object__count__C)
                  0000f200    00000004     app_ble_pem3.oem3 (.const:ti_sysbios_family_arm_m3_Hwi_ccr__C)
                  0000f204    00000004     app_ble_pem3.oem3 (.const:ti_sysbios_family_arm_m3_Hwi_excHandlerFunc__C)
                  0000f208    00000004     app_ble_pem3.oem3 (.const:ti_sysbios_family_arm_m3_Hwi_nullIsrFunc__C)
                  0000f20c    00000004     app_ble_pem3.oem3 (.const:ti_sysbios_family_arm_m3_Hwi_priGroup__C)
                  0000f210    00000004     app_ble_pem3.oem3 (.const:ti_sysbios_family_arm_m3_TaskSupport_stackAlignment__C)
                  0000f214    00000004     app_ble_pem3.oem3 (.const:ti_sysbios_gates_GateMutex_Instance_State_sem__O)
                  0000f218    00000004     app_ble_pem3.oem3 (.const:ti_sysbios_knl_Clock_Module_State_clockQ__O)
                  0000f21c    00000004     app_ble_pem3.oem3 (.const:ti_sysbios_knl_Clock_tickPeriod__C)
                  0000f220    00000004     app_ble_pem3.oem3 (.const:ti_sysbios_knl_Clock_triggerClock__C)
                  0000f224    00000004     app_ble_pem3.oem3 (.const:ti_sysbios_knl_Idle_funcList__A)
                  0000f228    00000004     app_ble_pem3.oem3 (.const:ti_sysbios_knl_Semaphore_Instance_State_pendQ__O)
                  0000f22c    00000004     app_ble_pem3.oem3 (.const:ti_sysbios_knl_Swi_Object__count__C)
                  0000f230    00000004     app_ble_pem3.oem3 (.const:ti_sysbios_knl_Task_Module_State_inactiveQ__O)
                  0000f234    00000004     app_ble_pem3.oem3 (.const:ti_sysbios_knl_Task_Object__count__C)
                  0000f238    00000004     app_ble_pem3.oem3 (.const:ti_sysbios_knl_Task_allBlockedFunc__C)
                  0000f23c    00000004     app_ble_pem3.oem3 (.const:ti_sysbios_knl_Task_defaultStackHeap__C)
                  0000f240    00000004     app_ble_pem3.oem3 (.const:ti_sysbios_knl_Task_defaultStackSize__C)
                  0000f244    00000004     app_ble_pem3.oem3 (.const:ti_sysbios_knl_Task_numConstructedTasks__C)
                  0000f248    00000004     app_ble_pem3.oem3 (.const:xdc_runtime_Error_E_memory__C)
                  0000f24c    00000004     app_ble_pem3.oem3 (.const:xdc_runtime_Error_policyFxn__C)
                  0000f250    00000004     app_ble_pem3.oem3 (.const:xdc_runtime_HeapMin_E_freeError__C)
                  0000f254    00000004     app_ble_pem3.oem3 (.const:xdc_runtime_IGateProvider_Interface__BASE__C)
                  0000f258    00000004     app_ble_pem3.oem3 (.const:xdc_runtime_IHeap_Interface__BASE__C)
                  0000f25c    00000004     app_ble_pem3.oem3 (.const:xdc_runtime_IModule_Interface__BASE__C)
                  0000f260    00000004     app_ble_pem3.oem3 (.const:xdc_runtime_Memory_defaultHeapInstance__C)
                  0000f264    00000004     app_ble_pem3.oem3 (.const:xdc_runtime_Startup_execImpl__C)
                  0000f268    00000004     app_ble_pem3.oem3 (.const:xdc_runtime_Startup_maxPasses__C)
                  0000f26c    00000004     app_ble_pem3.oem3 (.const:xdc_runtime_Startup_sfxnRts__C)
                  0000f270    00000004     app_ble_pem3.oem3 (.const:xdc_runtime_Startup_sfxnTab__C)
                  0000f274    00000004     app_ble_pem3.oem3 (.const:xdc_runtime_SysCallback_abortFxn__C)
                  0000f278    00000004     app_ble_pem3.oem3 (.const:xdc_runtime_SysCallback_exitFxn__C)
                  0000f27c    00000004     app_ble_pem3.oem3 (.const:xdc_runtime_System_Module__gateObj__C)
                  0000f280    00000004     app_ble_pem3.oem3 (.const:xdc_runtime_System_abortFxn__C)
                  0000f284    00000004     app_ble_pem3.oem3 (.const:xdc_runtime_System_exitFxn__C)
                  0000f288    00000004     app_ble_pem3.oem3 (.const:xdc_runtime_System_maxAtexitHandlers__C)
                  0000f28c    00000002     battservice.obj (.const:.string:battServUUID)
                  0000f28e    00000002     devinfoservice.obj (.const:.string:devInfo11073CertUUID)
                  0000f290    00000002     devinfoservice.obj (.const:.string:devInfoFirmwareRevUUID)
                  0000f292    00000002     devinfoservice.obj (.const:.string:devInfoHardwareRevUUID)
                  0000f294    00000002     devinfoservice.obj (.const:.string:devInfoMfrNameUUID)
                  0000f296    00000002     devinfoservice.obj (.const:.string:devInfoModelNumberUUID)
                  0000f298    00000002     devinfoservice.obj (.const:.string:devInfoPnpIdUUID)
                  0000f29a    00000002     devinfoservice.obj (.const:.string:devInfoSerialNumberUUID)
                  0000f29c    00000002     devinfoservice.obj (.const:.string:devInfoServUUID)
                  0000f29e    00000002     devinfoservice.obj (.const:.string:devInfoSoftwareRevUUID)
                  0000f2a0    00000002     devinfoservice.obj (.const:.string:devInfoSystemIdUUID)
                  0000f2a2    00000002     simplekeys.obj (.const:.string:keyPressedUUID)
                  0000f2a4    00000002     simplekeys.obj (.const:.string:skServUUID)
                  0000f2a6    00000002     SensorI2C.obj (.const:pinCfg1$22)
                  0000f2a8    00000002     app_ble_pem3.oem3 (.const:ti_sysbios_family_arm_m3_Hwi_Module__id__C)
                  0000f2aa    00000002     app_ble_pem3.oem3 (.const:xdc_runtime_HeapMin_Module__id__C)
                  0000f2ac    00000002     app_ble_pem3.oem3 (.const:xdc_runtime_HeapMin_freeError__C)
                  0000f2ae    00000002     app_ble_pem3.oem3 (.const:xdc_runtime_Memory_Module__id__C)

.cinit     0    0000f2b0    00000bd4     
                  0000f2b0    00000b4e     (.cinit..data.load) [load image, compression = rle]
                  0000fdfe    00000002     --HOLE-- [fill = 0]
                  0000fe00    0000000b     (.cinit..bss.load) [load image, compression = rle]
                  0000fe0b    00000005     --HOLE-- [fill = 0]
                  0000fe10    00000009     (.cinit..TI.bound:dmaSpi0RxControlTableEntry$35.load) [load image, compression = rle]
                  0000fe19    00000007     --HOLE-- [fill = 0]
                  0000fe20    00000009     (.cinit..TI.bound:dmaSpi0TxControlTableEntry$35.load) [load image, compression = rle]
                  0000fe29    00000007     --HOLE-- [fill = 0]
                  0000fe30    00000009     (.cinit..TI.bound:dmaSpi1RxControlTableEntry$35.load) [load image, compression = rle]
                  0000fe39    00000007     --HOLE-- [fill = 0]
                  0000fe40    00000009     (.cinit..TI.bound:dmaSpi1TxControlTableEntry$35.load) [load image, compression = rle]
                  0000fe49    00000003     --HOLE-- [fill = 0]
                  0000fe4c    00000008     (__TI_handler_table)
                  0000fe54    00000030     (__TI_cinit_table)

.init_array 
*          0    00001010    00000000     UNINITIALIZED

.TI.bound:dmaSpi0RxControlTableEntry$35 
*          0    20000430    00000010     UNINITIALIZED
                  20000430    00000010     SPICC26XXDMA.obj (.TI.bound:dmaSpi0RxControlTableEntry$35)

.TI.bound:dmaSpi1RxControlTableEntry$35 
*          0    20000500    00000010     UNINITIALIZED
                  20000500    00000010     SPICC26XXDMA.obj (.TI.bound:dmaSpi1RxControlTableEntry$35)

.data      0    20000520    000020f8     UNINITIALIZED
                  20000520    000003b8     sensortag.obj (.data:$O31$$)
                  200008d8    0000031c     peripheral.obj (.data:$O14$$)
                  20000bf4    000002b4     sensortag_bar.obj (.data:$O33$$)
                  20000ea8    000002b4     sensortag_hum.obj (.data:$O36$$)
                  2000115c    000002b4     sensortag_tmp.obj (.data:$O43$$)
                  20001410    00000230     RFCC26XX_singleMode.obj (.data:$O28$$)
                  20001640    000001d4     devinfoservice.obj (.data:$O4$$)
                  20001814    00000120     oad.obj (.data:$O10$$)
                  20001934    00000110     drivers_cc26xxware.aem3 : PowerCC26XX.oem3 (.data:PowerCC26XX_module)
                  20001a44    0000010c     icall.obj (.data:$O24$$)
                  20001b50    000000a0     movementservice.obj (.data:$O9$$)
                  20001bf0    0000009c     ccservice.obj (.data:$O3$$)
                  20001c8c    00000094     barometerservice.obj (.data:$O1$$)
                  20001d20    00000090     registerservice.obj (.data:$O15$$)
                  20001db0    00000090     humidityservice.obj (.data:$O6$$)
                  20001e40    00000090     irtempservice.obj (.data:$O8$$)
                  20001ed0    0000008c     opticservice.obj (.data:$O13$$)
                  20001f5c    00000078     battservice.obj (.data:$O2$$)
                  20001fd4    0000006c     ExtFlash.obj (.data:$O21$$)
                  20002040    0000005c     ioservice.obj (.data:$O7$$)
                  2000209c    00000058     simplekeys.obj (.data:$O16$$)
                  200020f4    00000050     ble_user_config.obj (.data:rfRegTbl)
                  20002144    0000004c     sensortag_mov.obj (.data:$O39$$)
                  20002190    0000004c     app_ble_pem3.oem3 (.data:ti_sysbios_knl_Task_Object__table__V)
                  200021dc    00000004     I2C.obj (.data)
                  200021e0    00000048     app_ble_pem3.oem3 (.data:ti_sysbios_family_arm_cc26xx_Timer_Object__table__V)
                  20002228    00000044     app_ble_pem3.oem3 (.data:ti_sysbios_knl_Task_Module__state__V)
                  2000226c    00000034     SensorMpu9250.obj (.data:$O19$$)
                  200022a0    00000034     app_ble_pem3.oem3 (.data:ti_sysbios_family_arm_m3_Hwi_Module__state__V)
                  200022d4    00000030     sensortag_register.obj (.data:$O42$$)
                  20002304    00000030     app_ble_pem3.oem3 (.data:ti_sysbios_knl_Swi_Module_State_0_readyQ__A)
                  20002334    00000030     app_ble_pem3.oem3 (.data:ti_sysbios_knl_Swi_Object__table__V)
                  20002364    00000030     app_ble_pem3.oem3 (.data:ti_sysbios_knl_Task_Module_State_0_readyQ__A)
                  20002394    00000030     main.obj (.data:user0Cfg)
                  200023c4    0000002c     sensortag_keys.obj (.data:$O38$$)
                  200023f0    0000002c     sensortag_opt.obj (.data:$O41$$)
                  2000241c    0000002c     app_ble_pem3.oem3 (.data:ti_sysbios_knl_Clock_Module__state__V)
                  20002448    00000024     app_ble_pem3.oem3 (.data:ti_sysbios_BIOS_Module__state__V)
                  2000246c    00000020     app_ble_pem3.oem3 (.data:ti_sysbios_knl_Clock_Object__table__V)
                  2000248c    0000001c     app_ble_pem3.oem3 (.data:ti_sysbios_gates_GateMutex_Object__table__V)
                  200024a8    0000001c     app_ble_pem3.oem3 (.data:ti_sysbios_knl_Swi_Module__state__V)
                  200024c4    00000018     sensortag_oad.obj (.data:$O40$$)
                  200024dc    00000018     app_ble_pem3.oem3 (.data:ti_sysbios_family_arm_m3_Hwi_Object__table__V)
                  200024f4    00000014     oad_target_external_flash.obj (.data:$O12$$)
                  20002508    00000010     simplekeys.obj (.data:skCharUserDesp$17)
                  20002518    00000010     app_ble_pem3.oem3 (.data:xdc_runtime_HeapMin_Object__table__V)
                  20002528    0000000c     rtsv7M3_T_le_eabi.lib : exit.obj (.data:$O1$$)
                  20002534    0000000c     icall_api.obj (.data:$O23$$)
                  20002540    00000009     devinfoservice.obj (.data)
                  20002549    00000003     barometerservice.obj (.data)
                  2000254c    00000008     icall_cc2650.obj (.data:$O26$$)
                  20002554    00000008     sensortag_io.obj (.data:$O37$$)
                  2000255c    00000008     rtsv7M3_T_le_eabi.lib : _lock.obj (.data:$O44$$)
                  20002564    00000008     battservice.obj (.data:battLevelPresentation$3)
                  2000256c    00000008     app_ble_pem3.oem3 (.data:ti_sysbios_family_arm_cc26xx_Timer_Module__state__V)
                  20002574    00000008     app_ble_pem3.oem3 (.data:ti_sysbios_family_arm_m3_Hwi_Module__root__V)
                  2000257c    00000008     app_ble_pem3.oem3 (.data:ti_sysbios_gates_GateHwi_Module__root__V)
                  20002584    00000008     app_ble_pem3.oem3 (.data:ti_sysbios_gates_GateMutex_Module__root__V)
                  2000258c    00000008     app_ble_pem3.oem3 (.data:ti_sysbios_hal_Hwi_Module__root__V)
                  20002594    00000008     app_ble_pem3.oem3 (.data:ti_sysbios_knl_Clock_Module__root__V)
                  2000259c    00000008     app_ble_pem3.oem3 (.data:ti_sysbios_knl_Queue_Module__root__V)
                  200025a4    00000008     app_ble_pem3.oem3 (.data:ti_sysbios_knl_Semaphore_Module__root__V)
                  200025ac    00000008     app_ble_pem3.oem3 (.data:ti_sysbios_knl_Swi_Module__root__V)
                  200025b4    00000008     app_ble_pem3.oem3 (.data:ti_sysbios_knl_Task_Module__root__V)
                  200025bc    00000008     app_ble_pem3.oem3 (.data:xdc_runtime_HeapMin_Module__root__V)
                  200025c4    00000008     app_ble_pem3.oem3 (.data:xdc_runtime_Startup_Module__state__V)
                  200025cc    00000008     app_ble_pem3.oem3 (.data:xdc_runtime_System_Module__state__V)
                  200025d4    00000004     SPI.obj (.data)
                  200025d8    00000004     ble_user_config.obj (.data)
                  200025dc    00000004     rtsv7M3_T_le_eabi.lib : stkdepth_vars.obj (.data)
                  200025e0    00000004     sensortag_conn_ctrl.obj (.data:sensorTag_ccCBs$45)
                  200025e4    00000004     sensortag_buzzer.obj (.data)
                  200025e8    00000004     app_ble_pem3.oem3 (.data:ti_sysbios_family_arm_m3_Hwi_Module_State_0_excContext__A)
                  200025ec    00000004     app_ble_pem3.oem3 (.data:ti_sysbios_family_arm_m3_Hwi_Module_State_0_excStack__A)
                  200025f0    00000004     app_ble_pem3.oem3 (.data:ti_sysbios_gates_GateHwi_Object__table__V)
                  200025f4    00000004     app_ble_pem3.oem3 (.data:ti_sysbios_knl_Task_Module_State_0_idleTask__A)
                  200025f8    00000004     app_ble_pem3.oem3 (.data:xdc_runtime_Memory_Module__state__V)
                  200025fc    00000003     ccservice.obj (.data)
                  200025ff    00000003     humidityservice.obj (.data)
                  20002602    00000003     irtempservice.obj (.data)
                  20002605    00000003     movementservice.obj (.data)
                  20002608    00000003     oad.obj (.data)
                  2000260b    00000003     opticservice.obj (.data)
                  2000260e    00000003     registerservice.obj (.data)
                  20002611    00000002     ioservice.obj (.data)
                  20002613    00000001     TRNGCC26XX.obj (.data)
                  20002614    00000002     app_ble_pem3.oem3 (.data:ti_sysbios_family_arm_m3_Hwi_Module_State_0_excActive__A)
                  20002616    00000001     battservice.obj (.data)
                  20002617    00000001     simplekeys.obj (.data)

.bss       0    20002618    00000ef2     UNINITIALIZED
                  20002618    00000684     (.common:xdc_runtime_HeapMin_Instance_State_0_buf__A)
                  20002c9c    00000004     (.common:trngCC26XXObjects)
                  20002ca0    00000200     app_ble_pem3.oem3 (.bss:taskStackSection)
                  20002ea0    000001b8     (.common:spiCC26XXDMAObjects)
                  20003058    00000110     PINCC26XX.obj (.bss:$O29$$)
                  20003168    00000110     sensortag_factoryreset.obj (.bss:$O35$$)
                  20003278    000000e0     (.common:i2cCC26xxObjects)
                  20003358    000000c8     (.common:ti_sysbios_family_arm_m3_Hwi_dispatchTable)
                  20003420    00000050     SensorI2C.obj (.bss:$O18$$)
                  20003470    00000028     sensortag_batt.obj (.bss:$O34$$)
                  20003498    00000020     (.common:udmaObjects)
                  200034b8    00000018     SensorBmp280.obj (.bss:calData$20)
                  200034d0    00000014     driverlib.lib : osc.obj (.bss:oscHfGlobals$77)
                  200034e4    00000008     SensorHdc1000.obj (.bss:$O17$$)
                  200034ec    00000008     SensorTmp007.obj (.bss:$O20$$)
                  200034f4    00000008     RFCC26XX_singleMode.obj (.bss)
                  200034fc    00000008     driverlib.lib : sys_ctrl.obj (.bss:powerQualGlobals$80)
                  20003504    00000002     SensorI2C.obj (.bss)
                  20003506    00000002     sensortag_mov.obj (.bss)
                  20003508    00000001     SensorTagTest.obj (.bss)
                  20003509    00000001     (.common:driverlib_release_0_46593)

.vtable    0    2000350a    00000000     UNINITIALIZED

.vtable_ram 
*          0    2000350a    00000000     UNINITIALIZED

vtable_ram 
*          0    2000350a    00000000     UNINITIALIZED

.sysmem    0    2000350a    00000000     UNINITIALIZED

.nonretenvar 
*          0    2000350a    00000000     UNINITIALIZED

.stack     0    20004228    00000200     UNINITIALIZED
                  20004228    00000200     --HOLE--

.bootVecs 
*          0    00000000    00000008     DSECT
                  00000000    00000008     boot.aem3 : boot.oem3 (.bootVecs)

.resetVecs 
*          0    00001010    0000003c     
                  00001010    0000003c     app_ble_pem3.oem3 (.resetVecs)

.vecs      0    20000000    000000c8     NOLOAD SECTION
                  20000000    000000c8     app_ble_pem3.oem3 (.vecs)

xdc.meta   0    00000000    00000114     COPY SECTION
                  00000000    00000114     app_ble_pem3.oem3 (xdc.meta)

xdc.noload 
*          0    00000000    00000000     COPY SECTION

.TI.bound:dmaSpi0TxControlTableEntry$35 
*          0    20000440    00000010     UNINITIALIZED
                  20000440    00000010     SPICC26XXDMA.obj (.TI.bound:dmaSpi0TxControlTableEntry$35)

.TI.bound:dmaSpi1TxControlTableEntry$35 
*          0    20000510    00000010     UNINITIALIZED
                  20000510    00000010     SPICC26XXDMA.obj (.TI.bound:dmaSpi1TxControlTableEntry$35)

MODULE SUMMARY

       Module                            code    ro data   rw data
       ------                            ----    -------   -------
    ./Application/
       sensortag.obj                     1550    60        952    
       sensortag_bar.obj                 536     0         692    
       sensortag_tmp.obj                 464     0         692    
       sensortag_hum.obj                 448     0         692    
       sensortag_factoryreset.obj        792     0         272    
       sensortag_mov.obj                 756     0         78     
       sensortag_keys.obj                636     0         44     
       sensortag_register.obj            516     0         48     
       sensortag_opt.obj                 380     0         44     
       util.obj                          380     0         0      
       sensortag_io.obj                  352     0         8      
       sensortag_oad.obj                 234     0         24     
       sensortag_conn_ctrl.obj           246     0         4      
       sensortag_batt.obj                156     0         40     
       sensortag_buzzer.obj              160     0         4      
    +--+---------------------------------+-------+---------+---------+
       Total:                            7606    60        3594   
                                                                  
    ./Drivers/I2C/
       I2CCC26XX.obj                     1344    32        0      
       I2C.obj                           136     16        4      
    +--+---------------------------------+-------+---------+---------+
       Total:                            1480    48        4      
                                                                  
    ./Drivers/PIN/
       PINCC26XX.obj                     1456    0         272    
    +--+---------------------------------+-------+---------+---------+
       Total:                            1456    0         272    
                                                                  
    ./Drivers/RF/
       RFCC26XX_singleMode.obj           4584    20        568    
    +--+---------------------------------+-------+---------+---------+
       Total:                            4584    20        568    
                                                                  
    ./Drivers/SPI/
       SPICC26XXDMA.obj                  2024    84        64     
       SPI.obj                           84      32        4      
    +--+---------------------------------+-------+---------+---------+
       Total:                            2108    116       68     
                                                                  
    ./Drivers/TRNG/
       TRNGCC26XX.obj                    270     0         1      
    +--+---------------------------------+-------+---------+---------+
       Total:                            270     0         1      
                                                                  
    ./Drivers/UDMA/
       UDMACC26XX.obj                    188     0         0      
    +--+---------------------------------+-------+---------+---------+
       Total:                            188     0         0      
                                                                  
    ./ICall/
       icall.obj                         2604    204       268    
       icall_cc2650.obj                  466     4         8      
    +--+---------------------------------+-------+---------+---------+
       Total:                            3070    208       276    
                                                                  
    ./ICallBLE/
       icall_api.obj                     2152    0         12     
       ble_user_config.obj               40      133       84     
    +--+---------------------------------+-------+---------+---------+
       Total:                            2192    133       96     
                                                                  
    ./Middleware/extflash/
       ExtFlash.obj                      986     8         108    
    +--+---------------------------------+-------+---------+---------+
       Total:                            986     8         108    
                                                                  
    ./Middleware/sensors/
       SensorMpu9250.obj                 1834    0         52     
       SensorBmp280.obj                  546     0         24     
       SensorI2C.obj                     446     2         82     
       SensorTmp007.obj                  330     0         8      
       SensorHdc1000.obj                 258     0         8      
       SensorOpt3001.obj                 204     0         0      
       SensorUtil.obj                    20      0         0      
    +--+---------------------------------+-------+---------+---------+
       Total:                            3638    2         174    
                                                                  
    ./Middleware/sensortag/
       SensorTagTest.obj                 120     0         1      
    +--+---------------------------------+-------+---------+---------+
       Total:                            120     0         1      
                                                                  
    ./PROFILES/
       peripheral.obj                    2634    0         796    
       oad.obj                           1340    144       291    
       devinfoservice.obj                392     40        477    
       movementservice.obj               548     84        163    
       barometerservice.obj              530     84        151    
       registerservice.obj               528     84        147    
       humidityservice.obj               514     84        147    
       irtempservice.obj                 514     84        147    
       opticservice.obj                  510     84        143    
       battservice.obj                   512     24        129    
       ccservice.obj                     402     84        159    
       ioservice.obj                     446     68        94     
       oad_target_external_flash.obj     490     16        20     
       gattservapp_util.obj              476     0         0      
       simplekeys.obj                    234     24        105    
       gatt_uuid.obj                     0       44        0      
       st_util.obj                       44      0         0      
    +--+---------------------------------+-------+---------+---------+
       Total:                            10114   948       2969   
                                                                  
    ./Startup/
       board.obj                         0       304       0      
       main.obj                          68      0         48     
    +--+---------------------------------+-------+---------+---------+
       Total:                            68      304       48     
                                                                  
    /home/data/remi/Projects/cc2650/sensortag_ble_sdk_2_02_00_31/sensortag/ccs/app/FlashOnly_OAD/configPkg/package/cfg/
       app_ble_pem3.oem3                 1468    1099      3326   
    +--+---------------------------------+-------+---------+---------+
       Total:                            1468    1099      3326   
                                                                  
    /tmp/
       16320R50xZ7                       0       0         701    
    +--+---------------------------------+-------+---------+---------+
       Total:                            0       0         701    
                                                                  
    /home/data/remi/.wine_installs/win64/drive_c/ti/tirtos_cc13xx_cc26xx_2_20_01_08/products/bios_6_46_01_38/packages/ti/targets/arm/rtsarm/lib/auto_init.aem3
       auto_init.oem3                    160     0         0      
    +--+---------------------------------+-------+---------+---------+
       Total:                            160     0         0      
                                                                  
    /home/data/remi/.wine_installs/win64/drive_c/ti/tirtos_cc13xx_cc26xx_2_20_01_08/products/bios_6_46_01_38/packages/ti/targets/arm/rtsarm/lib/boot.aem3
       boot.oem3                         68      0         0      
    +--+---------------------------------+-------+---------+---------+
       Total:                            68      0         0      
                                                                  
    /home/data/remi/.wine_installs/win64/drive_c/ti/tirtos_cc13xx_cc26xx_2_20_01_08/products/tidrivers_cc13xx_cc26xx_2_20_01_10/packages/ti/drivers/lib/drivers_cc26xxware.aem3
       PowerCC26XX.oem3                  2168    76        272    
       PowerCC26XX_calibrateRCOSC.oem3   1400    0         0      
       List.oem3                         82      0         0      
    +--+---------------------------------+-------+---------+---------+
       Total:                            3650    76        272    
                                                                  
    /home/data/remi/.wine_installs/win64/drive_c/ti/tirtos_cc13xx_cc26xx_2_20_01_08/products/tidrivers_cc13xx_cc26xx_2_20_01_10/packages/ti/drivers/lib/power_cc26xx_tirtos.aem3
       PowerCC26XX_tirtos.oem3           188     0         0      
    +--+---------------------------------+-------+---------+---------+
       Total:                            188     0         0      
                                                                  
    /home/data/remi/.wine_installs/win64/drive_c/ti/tirtos_cc13xx_cc26xx_2_20_01_08/products/tidrivers_cc13xx_cc26xx_2_20_01_10/packages/ti/drivers/ports/lib/tirtosport.aem3
       HwiP_tirtos.oem3                  4       0         0      
    +--+---------------------------------+-------+---------+---------+
       Total:                            4       0         0      
                                                                  
    /home/data/remi/Projects/cc2650/sensortag_ble_sdk_2_02_00_31/sensortag/ccs/config/src/sysbios/sysbios.aem3
       BIOS.obj                          6292    0         0      
       m3_Hwi_asm.obj                    258     0         0      
       m3_TaskSupport_asm.obj            108     0         0      
       m3_Hwi_asm_switch.obj             102     0         0      
    +--+---------------------------------+-------+---------+---------+
       Total:                            6760    0         0      
                                                                  
    /home/data/remi/dev_tools/Embedded/TI/ccsv6_install/ccsv6/tools/compiler/arm_15.12.3.LTS/lib/rtsv7M3_T_le_eabi.lib
       ull_div_t2.obj                    500     0         0      
       memcpy_t2.obj                     156     0         0      
       memset_t2.obj                     122     0         0      
       copy_decompress_rle.obj           112     0         0      
       exit.obj                          84      0         12     
       cpy_tbl.obj                       76      0         0      
       memcmp.obj                        34      0         0      
       _lock.obj                         20      0         8      
       args_main.obj                     24      0         0      
       ll_mul_t2.obj                     24      0         0      
       strlen.obj                        20      0         0      
       copy_decompress_none.obj          14      0         0      
       stkdepth_vars.obj                 0       0         4      
    +--+---------------------------------+-------+---------+---------+
       Total:                            1186    0         24     
                                                                  
    /home/remi/.wine_installs/win64/drive_c/ti/tirtos_cc13xx_cc26xx_2_20_01_08/products/cc26xxware_2_24_02_17393/driverlib/bin/ccs/driverlib.lib
       setup.obj                         1666    0         0      
       sys_ctrl.obj                      712     0         8      
       osc.obj                           468     0         20     
       chipinfo.obj                      228     0         0      
       ddi.obj                           188     0         0      
       rfc.obj                           164     0         0      
       trng.obj                          48      0         0      
       aon_rtc.obj                       44      0         0      
       adi.obj                           40      0         0      
       aon_batmon.obj                    40      0         0      
       cpu.obj                           30      0         0      
       vims.obj                          14      0         0      
    +--+---------------------------------+-------+---------+---------+
       Total:                            3642    0         28     
                                                                  
       Stack:                            0       0         512    
       Linker Generated:                 0       2997      0      
    +--+---------------------------------+-------+---------+---------+
       Grand Total:                      55006   6019      13042  


LINKER GENERATED COPY TABLES

__TI_cinit_table @ 0000fe54 records: 6, size/record: 8, table size: 48
	.data: load addr=0000f2b0, load size=00000b4e bytes, run addr=20000520, run size=000020f8 bytes, compression=rle
	.bss: load addr=0000fe00, load size=0000000b bytes, run addr=20002618, run size=00000ef2 bytes, compression=rle
	.TI.bound:dmaSpi0RxControlTableEntry$35: load addr=0000fe10, load size=00000009 bytes, run addr=20000430, run size=00000010 bytes, compression=rle
	.TI.bound:dmaSpi0TxControlTableEntry$35: load addr=0000fe20, load size=00000009 bytes, run addr=20000440, run size=00000010 bytes, compression=rle
	.TI.bound:dmaSpi1RxControlTableEntry$35: load addr=0000fe30, load size=00000009 bytes, run addr=20000500, run size=00000010 bytes, compression=rle
	.TI.bound:dmaSpi1TxControlTableEntry$35: load addr=0000fe40, load size=00000009 bytes, run addr=20000510, run size=00000010 bytes, compression=rle


LINKER GENERATED HANDLER TABLE

__TI_handler_table @ 0000fe4c records: 2, size/record: 4, table size: 8
	index: 0, handler: __TI_decompress_rle24
	index: 1, handler: __TI_decompress_none


GLOBAL SYMBOLS: SORTED ALPHABETICALLY BY Name 

address   name                                                        
-------   ----                                                        
10014c00  A1_rw                                                       
10019ffe  A2_rw                                                       
10019ffc  A3_rw                                                       
20004f2c  A4_rw                                                       
20004f7c  ACCX                                                        
20004f80  ACCY                                                        
20004f84  ACCZ                                                        
10015229  ATOMICPATTERN                                               
10016c29  AddRoundKeySubBytes_Sw                                      
10018a19  AesCcm_authEncrypt_Sw                                       
10018a35  AesCcm_decryptAuth_Sw                                       
10018b09  AesCcm_getNumBlocks_Sw                                      
10018ac5  Aes_decrypt_Sw                                              
10018a99  Aes_encrypt_Sw                                              
0000dc55  AssertHandler                                               
0000c349  Barometer_addService                                        
0000c9fd  Barometer_getParameter                                      
0000d655  Barometer_registerAppCBs                                    
00007ead  Barometer_setParameter                                      
0000c371  Batt_AddService                                             
0000d1cd  Batt_MeasLevel                                              
0000dcf1  Batt_Register                                               
0000d66d  Batt_SetParameter                                           
0000e7f8  BoardGpioInitTable                                          
00008ce1  C$$EXIT                                                     
20004f2c  COMMON_RAM_BASE_ADDR                                        
10014c01  COMMON_ROM_BASE_ADDR                                        
10015a6d  COPY                                                        
0000c399  CcService_addService                                        
0000df7d  CcService_getParameter                                      
0000dd05  CcService_registerAppCBs                                    
0000c3c1  CcService_setParameter                                      
00005cd7  DefaultAssertCback                                          
0000dd19  DevInfo_AddService                                          
000060d9  DevInfo_SetParameter                                        
10017959  ECC_allocWorkzone                                           
10017961  ECC_setWin                                                  
10017969  ECDSA_sign                                                  
10017b01  ECDSA_verif                                                 
10015a11  EXPORTOPERAND                                               
20004f78  EXPW                                                        
20004f6c  EXPX                                                        
20004f70  EXPY                                                        
20004f74  EXPZ                                                        
0000b505  ExtFlash_close                                              
00007f09  ExtFlash_erase                                              
00009f3d  ExtFlash_open                                               
00008ed3  ExtFlash_read                                               
0000df21  ExtFlash_test                                               
00006fa9  ExtFlash_write                                              
10016f58  FFMult2                                                     
10017058  FFMult3                                                     
10016d05  FFMult_Sw                                                   
10018d6c  Fill1                                                       
0000a9cd  GAPBondMgr_LinkEst                                          
0000ca21  GAPBondMgr_LinkTerm                                         
0000bc9d  GAPBondMgr_Register                                         
0000ae29  GAPBondMgr_SetParameter                                     
00002db9  GAPRole_GetParameter                                        
0000df9d  GAPRole_RegisterAppCBs                                      
0000aa05  GAPRole_SendUpdateParam                                     
0000164d  GAPRole_SetParameter                                        
0000d69d  GAPRole_StartDevice                                         
0000d6b5  GAPRole_TerminateConnection                                 
00009fbd  GAPRole_createTask                                          
00008f25  GAP_DeviceInit                                              
0000dfad  GAP_EndDiscoverable                                         
0000a37d  GAP_GetParamValue                                           
0000e2d1  GAP_MakeDiscoverable                                        
0000ae5d  GAP_SetParamValue                                           
0000e2dd  GAP_TerminateAuth                                           
00009b41  GAP_TerminateLinkReq                                        
00008f75  GAP_UpdateAdvertisingData                                   
0000e2e9  GAP_UpdateLinkParamReq                                      
0000e2f5  GAP_UpdateLinkParamReqReply                                 
0000e69b  GATTServApp_AddService                                      
0000df33  GATTServApp_FindAttr                                        
0000cd75  GATTServApp_InitCharCfg                                     
000096bd  GATTServApp_ProcessCCCWriteReq                              
00005cd9  GATTServApp_ProcessCharCfg                                  
0000dfbd  GATTServApp_ReadCharCfg                                     
0000a3b9  GATTServApp_RegisterService                                 
0000c3e9  GATTServApp_WriteCharCfg                                    
0000e19d  GATT_Indication                                             
0000d569  GATT_Notification                                           
0000d1e9  GATT_bm_alloc                                               
0000d205  GATT_bm_free                                                
10015141  GETBIT                                                      
10015155  GETDIGIT                                                    
100151a5  GETDIGITL2R                                                 
0000e5cf  GGS_AddService                                              
0000e301  GGS_SetParameter                                            
20001a68  HEAPMGR_SIZE                                                
0000c411  Humidity_addService                                         
0000cd95  Humidity_getParameter                                       
0000d6cd  Humidity_registerAppCBs                                     
00008579  Humidity_setParameter                                       
0000e69f  HwiP_disable                                                
0000e66b  HwiP_restore                                                
00006165  I2CCC26XX_cancel                                            
000079b9  I2CCC26XX_close                                             
0000e5d5  I2CCC26XX_control                                           
0000ed98  I2CCC26XX_fxnTable                                          
0000e4d5  I2CCC26XX_init                                              
00003219  I2CCC26XX_open                                              
00004645  I2CCC26XX_transfer                                          
0000d6e5  I2C_Params_init                                             
0000e4df  I2C_close                                                   
0000edb0  I2C_config                                                  
0000f03c  I2C_defaultParams                                           
0000aa3d  I2C_init                                                    
0000ca45  I2C_open                                                    
0000e4e9  I2C_transfer                                                
0000a3f5  ICallPlatform_pwrConfigACAction                             
0000d6fd  ICallPlatform_pwrDispense                                   
0000e1ab  ICallPlatform_pwrGetTransitionState                         
0000dfcd  ICallPlatform_pwrGetXOSCStartupTime                         
0000e1b9  ICallPlatform_pwrIsStableXOSCHF                             
0000b565  ICallPlatform_pwrRegisterNotify                             
0000d715  ICallPlatform_pwrRequire                                    
0000e4f3  ICallPlatform_pwrSwitchXOSCHF                               
00006d65  ICallPlatform_pwrUpdActivityCounter                         
000071dd  ICall_createRemoteTasks                                     
20001a44  ICall_dispatcher                                            
0000d583  ICall_enterCSImpl                                           
20001a4c  ICall_enterCriticalSection                                  
0000bcc9  ICall_freeImpl                                              
0000bcc9  ICall_heapFree                                              
00007249  ICall_heapInit                                              
0000640d  ICall_heapMalloc                                            
0000c439  ICall_init                                                  
0000dc81  ICall_leaveCSImpl                                           
20001a50  ICall_leaveCriticalSection                                  
0000e5db  ICall_mallocImpl                                            
0000af61  ICall_searchServiceEntity                                   
10015a35  IMPORTDATA                                                  
100159a9  IMPORTLENGTH                                                
100159ad  IMPORTMODULUS                                               
100159d1  IMPORTOPERAND                                               
1001568d  INVERT                                                      
0000c551  IRTemp_addService                                           
0000ce55  IRTemp_getParameter                                         
0000d81d  IRTemp_registerAppCBs                                       
000085d1  IRTemp_setParameter                                         
10016da1  InvAddRoundKey_Sw                                           
10016ed5  InvMixColumns_Sw                                            
10016dc9  InvRoundKey_Sw                                              
10017264  InvSbox                                                     
10016ea1  InvShiftRows_Sw                                             
10016e8d  InvSubBytes_Sw                                              
0000c579  Io_addService                                               
0000dd41  Io_getParameter                                             
0000dd55  Io_registerAppCBs                                           
0000af95  Io_setParameter                                             
100154f5  JACADD                                                      
20004fe8  LEN                                                         
100158ac  LUTC                                                        
100158dc  LUTINCI                                                     
100158f4  LUTJ                                                        
1001588c  LUTOPCODE                                                   
10015894  LUTOPSIGN                                                   
100158c4  LUTSE                                                       
1001596c  LUTSTATE                                                    
0000e507  List_empty                                                  
0000e6a7  List_head                                                   
0000e6ab  List_next                                                   
0000c9b1  List_put                                                    
0000d5b7  List_remove                                                 
10018825  MB_ClearInts                                                
100187f5  MB_DisableInts                                              
10018835  MB_EnableHWInts                                             
10018799  MB_EnableInts                                               
10018945  MB_FwDebugDump                                              
10018755  MB_Init                                                     
10018935  MB_ReadMailboxStatus                                        
1001893d  MB_RegisterIsrCback                                         
10018865  MB_SendCommand                                              
100188a5  MB_SendCommandSynch                                         
20004fe4  MOD                                                         
20004fd8  MSBMOD                                                      
10016c79  MixColumns_Sw                                               
0000c5a1  Movement_addService                                         
0000b5f5  Movement_getParameter                                       
0000d835  Movement_registerAppCBs                                     
00008629  Movement_setParameter                                       
10018b9c  NIST_Curve_P256_Gx                                          
10018bc0  NIST_Curve_P256_Gy                                          
10018b54  NIST_Curve_P256_a                                           
10018b78  NIST_Curve_P256_b                                           
10018b0c  NIST_Curve_P256_p                                           
10018b30  NIST_Curve_P256_r                                           
0000c5c9  NOROM_AONBatMonTemperatureGetDegC                           
0000dd69  NOROM_AONRTCCurrent64BitValueGet                            
0000d84d  NOROM_AONRTCCurrentCompareValueGet                          
0000e349  NOROM_CPUcpsid                                              
0000e355  NOROM_CPUcpsie                                              
0000e5e1  NOROM_CPUdelay                                              
00009799  NOROM_ChipInfo_GetChipFamily                                
0000701d  NOROM_ChipInfo_GetHwRevision                                
0000d865  NOROM_ChipInfo_GetPackageType                               
00009ffd  NOROM_DDI16BitfieldRead                                     
000097e1  NOROM_DDI16BitfieldWrite                                    
0000afc9  NOROM_DDI32RegWrite                                         
0000d275  NOROM_OSCClockSourceGet                                     
000093c5  NOROM_OSCClockSourceSet                                     
00007fc1  NOROM_OSCHF_AttemptToSwitchToXosc                           
000061ed  NOROM_OSCHF_GetStartupTime                                  
0000affd  NOROM_OSCHF_SwitchToRcOscTurnOffXosc                        
0000d87d  NOROM_OSCHF_TurnOnXosc                                      
0000a431  NOROM_OSC_HPOSCRelativeFrequencyOffsetGet                   
0000d895  NOROM_RFCCpeIntGetAndClear                                  
0000ce75  NOROM_RFCDoorbellSendTo                                     
0000ce95  NOROM_RFCRfTrimRead                                         
0000dffd  NOROM_RFCRfTrimSet                                          
0000a46d  NOROM_RFCSynthPowerDown                                     
00006b0d  NOROM_SetupAfterColdResetWakeupFromShutDownCfg1             
00003e45  NOROM_SetupAfterColdResetWakeupFromShutDownCfg2             
00002c89  NOROM_SetupAfterColdResetWakeupFromShutDownCfg3             
0000d8ad  NOROM_SetupGetTrimForAdcShModeEn                            
0000d8c5  NOROM_SetupGetTrimForAdcShVbufEn                            
000072b5  NOROM_SetupGetTrimForAmpcompCtrl                            
0000d8dd  NOROM_SetupGetTrimForAmpcompTh1                             
0000d291  NOROM_SetupGetTrimForAmpcompTh2                             
000075a9  NOROM_SetupGetTrimForAnabypassValue1                        
0000d8f5  NOROM_SetupGetTrimForDblrLoopFilterResetVoltage             
0000bf5d  NOROM_SetupGetTrimForRadcExtCfg                             
0000d90d  NOROM_SetupGetTrimForRcOscLfIBiasTrim                       
0000d2ad  NOROM_SetupGetTrimForRcOscLfRtuneCtuneTrim                  
0000ceb5  NOROM_SetupGetTrimForXoscHfCtl                              
0000e00d  NOROM_SetupGetTrimForXoscHfFastStart                        
0000e01d  NOROM_SetupGetTrimForXoscHfIbiastherm                       
0000d925  NOROM_SetupGetTrimForXoscLfRegulatorAndCmirrwrRatio         
0000b625  NOROM_SetupSetAonRtcSubSecInc                               
00009015  NOROM_SetupSetCacheModeAccordingToCcfgSetting               
0000e1ff  NOROM_SetupSignExtendVddrTrimValue                          
00005579  NOROM_SetupTrimDevice                                       
0000801d  NOROM_SysCtrlAdjustRechargeAfterPowerDown                   
00001ab1  NOROM_SysCtrlSetRechargeBeforePowerDown                     
00007611  NOROM_SysCtrl_DCDC_VoltageConditionalControl                
0000b655  NOROM_TRNGConfigure                                         
0000dd7d  NOROM_ThisCodeIsBuiltForCC26xxHwRev22AndLater_HaltIfViolated
0000e20d  NOROM_VIMSModeGet                                           
0000d93d  OADTarget_close                                             
0000e5e7  OADTarget_eraseFlash                                        
0000e02d  OADTarget_getCrc                                            
00007679  OADTarget_getCurrentImageHeader                             
0000e21b  OADTarget_imageAddress                                      
0000d955  OADTarget_open                                              
0000e511  OADTarget_readFlash                                         
0000e03d  OADTarget_setCrc                                            
0000a03d  OADTarget_storeImageHeader                                  
0000e04d  OADTarget_systemReset                                       
00008079  OADTarget_validateNewImage                                  
0000dd91  OADTarget_writeFlash                                        
00008681  OAD_addService                                              
0000537d  OAD_imgBlockWrite                                           
000058a1  OAD_imgIdentifyWrite                                        
0000d96d  OAD_register                                                
0000c5f1  Optic_addService                                            
0000ced5  Optic_getParameter                                          
0000d985  Optic_registerAppCBs                                        
000089ed  Optic_setParameter                                          
10014c04  P1_ro                                                       
10019ffe  P1_ro_2                                                     
20004f40  P2_rw                                                       
20004f40  P2_s0                                                       
20004fac  P2_zi                                                       
0000a4a9  PINCC26XX_getConfig                                         
0000c619  PINCC26XX_getPinCount                                       
0000bf89  PINCC26XX_setMux                                            
200030ec  PIN_HandleTable                                             
20003058  PIN_NumPins                                                 
00007a1d  PIN_add                                                     
0000d153  PIN_close                                                   
0000d99d  PIN_getConfig                                               
0000dda5  PIN_getInputValue                                           
0000ddb9  PIN_getOutputValue                                          
00002269  PIN_init                                                    
00005b11  PIN_open                                                    
0000e5ed  PIN_registerIntCb                                           
000086d9  PIN_remove                                                  
0000bfb5  PIN_setConfig                                               
0000b685  PIN_setInterrupt                                            
0000b031  PIN_setOutputValue                                          
00007ccd  PowerCC26XX_RCOSC_clockFunc                                 
00006e4d  PowerCC26XX_auxISR                                          
00007321  PowerCC26XX_calibrate                                       
0000f04c  PowerCC26XX_config                                          
000025b9  PowerCC26XX_doCalibrate                                     
000061ed  PowerCC26XX_getXoscStartupTime                              
00008731  PowerCC26XX_initiateCalibration                             
0000b065  PowerCC26XX_isStableXOSC_HF                                 
20001934  PowerCC26XX_module                                          
00004de1  PowerCC26XX_standbyPolicy                                   
0000c641  PowerCC26XX_switchXOSC_HF                                   
0000e361  Power_getConstraintMask                                     
0000e36d  Power_getDependencyCount                                    
0000d171  Power_getTransitionLatency                                  
0000e379  Power_getTransitionState                                    
0000d9b5  Power_idleFunc                                              
00002ed9  Power_init                                                  
0000c669  Power_registerNotify                                        
0000b6b5  Power_releaseConstraint                                     
00003f19  Power_releaseDependency                                     
0000b6e5  Power_setConstraint                                         
00003fed  Power_setDependency                                         
00001889  Power_sleep                                                 
0000cef5  Power_unregisterNotify                                      
10017158  RCon                                                        
10018415  RFHAL_AddTxDataEntry                                        
100184f9  RFHAL_AllocDataEntry                                        
100184a9  RFHAL_AllocDataEntryQueue                                   
10018315  RFHAL_AllocRatChan                                          
100185e1  RFHAL_BuildDataEntryRingBuffer                              
10018669  RFHAL_BuildLinkedBuffer                                     
10018551  RFHAL_BuildRingBuffer                                       
10018549  RFHAL_FreeDataEntry                                         
100184c5  RFHAL_FreeDataEntryQueue                                    
10018485  RFHAL_FreeNextTxDataEntry                                   
1001833d  RFHAL_FreeRatChan                                           
100184cd  RFHAL_GetNextDataEntry                                      
100184d1  RFHAL_GetTempDataEntry                                      
100183b9  RFHAL_InitDataQueue                                         
100182ad  RFHAL_InitRfHal                                             
10018369  RFHAL_MapRatChansToInt                                      
100184d5  RFHAL_NextDataEntryDone                                     
100183c5  RFHAL_QueueRFDataEntries                                    
10018391  RFHAL_RegisterRatChanCallback                               
0000ddcd  RF_Params_init                                              
00002411  RF_cancelCmd                                                
0000e55f  RF_flushCmd                                                 
0000df45  RF_getCmdOp                                                 
00007d2d  RF_getCurrentTime                                           
00009065  RF_getInfo                                                  
0000a07d  RF_getRssi                                                  
00004ba1  RF_open                                                     
0000661d  RF_pendCmd                                                  
0000273d  RF_postCmd                                                  
0000a4e5  RF_runCmd                                                   
0000d301  RF_runDirectCmd                                             
0000d31d  RF_runImmediateCmd                                          
0000e05d  RegisterAssertCback                                         
0000dde1  Register_addService                                         
0000b0cd  Register_getParameter                                       
0000d9e5  Register_registerAppCBs                                     
0000a521  Register_setParameter                                       
00009cd9  ResetISR                                                    
10016b79  RoundKey_Sw                                                 
10015101  SAVEPOINT                                                   
20004f68  SCAL                                                        
100150e5  SCALARMUL                                                   
10014ced  SCALARMUL_core                                              
10015019  SCALARMUL_final                                             
10014c05  SCALARMUL_init                                              
10015a51  SETOPERAND                                                  
10015a91  SETWORD                                                     
10018089  SHA256_final                                                
10018129  SHA256_full                                                 
10017ffd  SHA256_init                                                 
10017ef1  SHA256_nextState                                            
10018019  SHA256_process                                              
10017e75  SHA256_round                                                
10017f49  SHA256_saveBuffer                                           
10017e39  SHA256_updateW                                              
UNDEFED   SHT$$INIT_ARRAY$$Base                                       
UNDEFED   SHT$$INIT_ARRAY$$Limit                                      
0000c691  SK_AddService                                               
0000c6b9  SK_SetParameter                                             
00008411  SPICC26XXDMA_close                                          
00005d6d  SPICC26XXDMA_control                                        
0000ed60  SPICC26XXDMA_fxnTable                                       
0000e229  SPICC26XXDMA_init                                           
00002a05  SPICC26XXDMA_open                                           
000040bd  SPICC26XXDMA_transfer                                       
000037ed  SPICC26XXDMA_transferCancel                                 
0000d339  SPI_Params_init                                             
0000e51b  SPI_close                                                   
0000eb2c  SPI_config                                                  
0000ebe0  SPI_defaultParams                                           
0000cab1  SPI_open                                                    
0000e525  SPI_transfer                                                
10015821  SQUAREMULTIPLYWORD                                          
10017895  SSP_CCM_Auth_Encrypt_Sw                                     
10017365  SSP_CCM_Auth_Sw                                             
1001767d  SSP_CCM_Decrypt_Sw                                          
100174fd  SSP_CCM_Encrypt_Sw                                          
100178f5  SSP_CCM_InvAuth_Decrypt_Sw                                  
10017839  SSP_CCM_InvAuth_Sw                                          
10017771  SSP_CTR_Decrypt_Sw                                          
100175ed  SSP_CTR_Encrypt_Sw                                          
0000c709  SafeHapiVoid                                                
10017164  Sbox                                                        
10015215  SelectReg                                                   
00003605  SensorBmp280_convert                                        
0000c731  SensorBmp280_enable                                         
0000b101  SensorBmp280_init                                           
0000a599  SensorBmp280_read                                           
00005c41  SensorBmp280_test                                           
0000bfe1  SensorHdc1000_init                                          
00009bc9  SensorHdc1000_read                                          
0000c00d  SensorHdc1000_start                                         
00007951  SensorHdc1000_test                                          
0000e385  SensorI2C_deselect                                          
00008a41  SensorI2C_open                                              
0000a0fd  SensorI2C_read                                              
0000e237  SensorI2C_readReg                                           
0000708d  SensorI2C_select                                            
0000aaad  SensorI2C_write                                             
0000a5d5  SensorI2C_writeRead                                         
0000c039  SensorI2C_writeReg                                          
0000a611  SensorMpu9250_accRead                                       
0000a64d  SensorMpu9250_accReadRange                                  
00009c0d  SensorMpu9250_accSetRange                                   
0000b135  SensorMpu9250_enable                                        
00003d69  SensorMpu9250_enableWom                                     
0000aae5  SensorMpu9250_gyroRead                                      
0000c065  SensorMpu9250_init                                          
0000a959  SensorMpu9250_irqStatus                                     
00003315  SensorMpu9250_magRead                                       
00008131  SensorMpu9250_magReset                                      
0000a13d  SensorMpu9250_magTest                                       
0000de09  SensorMpu9250_powerIsOn                                     
0000cad5  SensorMpu9250_powerOff                                      
0000b715  SensorMpu9250_powerOn                                       
0000de1d  SensorMpu9250_registerCallback                              
0000738d  SensorMpu9250_reset                                         
0000818d  SensorMpu9250_test                                          
0000bbb9  SensorOpt3001_enable                                        
0000e5f3  SensorOpt3001_init                                          
00009707  SensorOpt3001_read                                          
000091f5  SensorOpt3001_test                                          
0000a689  SensorTagBar_createTask                                     
0000c091  SensorTagBar_init                                           
00006275  SensorTagBar_processCharChangeEvt                           
0000c759  SensorTagBar_reset                                          
0000c0bd  SensorTagBatt_init                                          
0000d355  SensorTagBatt_processCharChangeEvt                          
0000de31  SensorTagBatt_processSensorEvent                            
0000cf15  SensorTagBatt_reset                                         
0000c781  SensorTagBuzzer_close                                       
0000a6c5  SensorTagBuzzer_open                                        
0000a701  SensorTagBuzzer_setFrequency                                
0000c7a9  SensorTagConnControl_paramUpdateCB                          
00008e81  SensorTagConnControl_processCharChangeEvt                   
0000e391  SensorTagConnectionControl_init                             
000076e1  SensorTagConnectionControl_update                           
0000a17d  SensorTagFactoryReset_applyFactoryImage                     
00007749  SensorTagFactoryReset_extFlashErase                         
00005009  SensorTagFactoryReset_hasImage                              
00002b51  SensorTagFactoryReset_storeCurrentImage                     
0000a73d  SensorTagHum_createTask                                     
0000c0e9  SensorTagHum_init                                           
0000691d  SensorTagHum_processCharChangeEvt                           
0000caf9  SensorTagHum_reset                                          
00009c51  SensorTagIO_blinkLed                                        
0000cf35  SensorTagIO_init                                            
000050bd  SensorTagIO_processCharChangeEvt                            
00009c95  SensorTagIO_reset                                           
0000c7d1  SensorTagKeys_init                                          
0000516d  SensorTagKeys_processEvent                                  
0000b169  SensorTagKeys_processKeyLeft                                
0000b19d  SensorTagKeys_processKeyRight                               
0000b1d1  SensorTagKeys_processRelay                                  
0000de45  SensorTagKeys_reset                                         
00008a95  SensorTagMov_init                                           
00004c61  SensorTagMov_processCharChangeEvt                           
000036f9  SensorTagMov_processSensorEvent                             
0000c115  SensorTagMov_reset                                          
0000c7f9  SensorTagOad_init                                           
0000a1bd  SensorTagOad_processEvent                                   
00009411  SensorTagOpt_init                                           
00005e01  SensorTagOpt_processCharChangeEvt                           
0000cb1d  SensorTagOpt_processSensorEvent                             
0000ab1d  SensorTagOpt_reset                                          
0000e06d  SensorTagRegister_init                                      
000062fd  SensorTagRegister_processCharChangeEvt                      
00006ec1  SensorTagRegister_reset                                     
0000cb41  SensorTagRegister_update                                    
0000a779  SensorTagTmp_createTask                                     
0000c821  SensorTagTmp_init                                           
0000669d  SensorTagTmp_processCharChangeEvt                           
0000c849  SensorTagTmp_reset                                          
0000e52f  SensorTag_charValueChangeCB                                 
0000a7b5  SensorTag_createTask                                        
00006bfd  SensorTag_testExecute                                       
0000e3b5  SensorTag_testResult                                        
0000da5d  SensorTag_updateAdvertisingData                             
0000a1fd  SensorTmp007_enable                                         
0000e5f9  SensorTmp007_init                                           
000077b1  SensorTmp007_read                                           
000059d9  SensorTmp007_test                                           
0000de59  SensorUtil_convertToLe                                      
10016c45  ShiftRows_Sw                                                
20004f88  TMP1                                                        
20004f8c  TMP2                                                        
20004f90  TMP3                                                        
20004f94  TMP4                                                        
20004f98  TMP5                                                        
20004f9c  TMP6                                                        
0000f1e8  TRNGCC26XXHWAttrs                                           
0000f05c  TRNGCC26XX_config                                           
00006515  TRNGCC26XX_getNumber                                        
0000c8c1  TRNGCC26XX_init                                             
0000c2cb  TRNGCC26XX_isParamValid                                     
0000d38d  TRNGCC26XX_open                                             
0000adbd  UDMACC26XX_close                                            
0000f06c  UDMACC26XX_config                                           
0000e543  UDMACC26XX_hwiIntFxn                                        
000081e9  UDMACC26XX_open                                             
000094a9  Util_constructClock                                         
0000e245  Util_constructQueue                                         
0000d5d1  Util_dequeueMsg                                             
0000c2f5  Util_enqueueMsg                                             
0000e07d  Util_isActive                                               
00008ae9  Util_rescheduleClock                                        
0000ab55  Util_restartClock                                           
0000e6b3  Util_startClock                                             
0000e6b7  Util_stopClock                                              
10015a85  ZERO                                                        
00000000  __ASM__                                                     
0000008e  __ISA__                                                     
000000a0  __PLAT__                                                    
20004428  __STACK_END                                                 
00000200  __STACK_SIZE                                                
20004428  __STACK_TOP                                                 
000000c7  __TARG__                                                    
0000fe54  __TI_CINIT_Base                                             
0000fe84  __TI_CINIT_Limit                                            
0000fe4c  __TI_Handler_Table_Base                                     
0000fe54  __TI_Handler_Table_Limit                                    
00005761  __TI_auto_init                                              
20002528  __TI_cleanup_ptr                                            
0000e253  __TI_decompress_none                                        
0000e605  __TI_decompress_rle24                                       
2000252c  __TI_dtors_ptr                                              
20002530  __TI_enable_exit_profile_output                             
ffffffff  __TI_pprof_out_hndl                                         
ffffffff  __TI_prof_data_size                                         
ffffffff  __TI_prof_data_start                                        
0000f2b0  __TI_static_base__                                          
000000ec  __TRDR__                                                    
0000db4d  __aeabi_lmul                                                
00006a91  __aeabi_memclr                                              
00006a91  __aeabi_memclr4                                             
00006a91  __aeabi_memclr8                                             
00005a75  __aeabi_memcpy                                              
00005a75  __aeabi_memcpy4                                             
00005a75  __aeabi_memcpy8                                             
00006a93  __aeabi_memset                                              
00006a93  __aeabi_memset4                                             
00006a93  __aeabi_memset8                                             
00001cb5  __aeabi_uldivmod                                            
ffffffff  __binit__                                                   
ffffffff  __c_args__                                                  
10019ffe  __checksum_CommonROM                                        
10014c00  __checksum_begin_CommonROM                                  
10019ffd  __checksum_end_CommonROM                                    
0000e0ea  __checksum_value_CommonROM                                  
10018ced  __exit                                                      
20004228  __stack                                                     
0000db35  _args_main                                                  
00009cd9  _c_int00                                                    
00001000  _imgHdr                                                     
2000255c  _lock                                                       
0000de95  _nop                                                        
0000de9d  _register_lock                                              
0000de97  _register_unlock                                            
20002560  _unlock                                                     
00008ce5  abort                                                       
200025d8  appAssertCback                                              
0000ea78  appearanceUUID                                              
20004fdc  aux64                                                       
0000f098  battCBs                                                     
0000f1e6  battLevelUUID                                               
0000f28c  battServUUID                                                
ffffffff  binit                                                       
0000f0a4  ccServiceCBs                                                
0000ee3c  ccServiceServUUID                                           
0000ee4c  ccServicechar1UUID                                          
0000ee5c  ccServicechar2UUID                                          
0000ee6c  ccServicechar3UUID                                          
0000ea74  charAggFormatUUID                                           
0000ea6e  charExtPropsUUID                                            
0000ea62  charFormatUUID                                              
0000ea70  charUserDescUUID                                            
0000ea5e  characterUUID                                               
0000ea60  clientCharCfgUUID                                           
000095d9  copy_in                                                     
0000f28e  devInfo11073CertUUID                                        
0000f0b0  devInfoCBs                                                  
0000f290  devInfoFirmwareRevUUID                                      
0000f292  devInfoHardwareRevUUID                                      
0000f294  devInfoMfrNameUUID                                          
0000f296  devInfoModelNumberUUID                                      
0000f298  devInfoPnpIdUUID                                            
0000f29a  devInfoSerialNumberUUID                                     
0000f29c  devInfoServUUID                                             
0000f29e  devInfoSoftwareRevUUID                                      
0000f2a0  devInfoSystemIdUUID                                         
0000ea76  deviceNameUUID                                              
0000dcad  driverTable_fnSpinlock                                      
20003509  driverlib_release_0_46593                                   
10017dbd  eccRom_genKeys                                              
10017ded  eccRom_genSharedSecret                                      
20004fa0  eccRom_param_Gx                                             
20004fa4  eccRom_param_Gy                                             
20004f50  eccRom_param_a                                              
20004fa8  eccRom_param_b                                              
20004f48  eccRom_param_p                                              
20004f4c  eccRom_param_r                                              
20004f40  eccRom_windowSize                                           
20004f44  eccRom_workzone                                             
00008ced  exit                                                        
0000ea84  extReportRefUUID                                            
20004fcc  fwInfoCmd                                                   
20000520  gapProfileState                                             
200009ec  gapRoleTask                                                 
20000a3c  gapRoleTaskStack                                            
0000dabd  gapRole_clockHandler                                        
0000ea66  gapServiceUUID                                              
0000ea68  gattServiceUUID                                             
0000cb65  getImageFlag                                                
2000052c  hGpioPin                                                    
20004228  heapEnd                                                     
2000350a  heapStart                                                   
0000edc8  i2cCC26xxHWAttrs                                            
20003278  i2cCC26xxObjects                                            
20004f58  inPointX                                                    
20004f5c  inPointY                                                    
20004f54  inScalar                                                    
0000ea6c  includeUUID                                                 
0000f0bc  ioCBs                                                       
0000ee7c  ioConfUUID                                                  
0000ee8c  ioDataUUID                                                  
0000ee9c  ioServUUID                                                  
0000f2a2  keyPressedUUID                                              
20002534  lastAppOpcodeSent                                           
200008d8  linkDBNumConns                                              
0000abfd  linkDB_NumConns                                             
10016551  mADD                                                        
10015bd5  mINVK                                                       
10015f81  mMULT                                                       
10016749  mOUT                                                        
10015a9d  mSET                                                        
1001664d  mSUB                                                        
0000bbe7  main                                                        
200025dc  main_func_sp                                                
10018949  mbCmdAckIsr                                                 
1001895d  mbCpe0Isr                                                   
10018985  mbCpe1Isr                                                   
100189e5  mbHwIsr                                                     
0000cd31  memcmp                                                      
00005a75  memcpy                                                      
00006a99  memset                                                      
0000e860  oadCBs                                                      
0000d3c5  openTRNG                                                    
0000b239  osal_snv_read                                               
0000b26d  osal_snv_write                                              
20004f60  outPointX                                                   
20004f64  outPointY                                                   
20004ffc  pSspAesEncrypt_Sw                                           
0000ea7e  periConnParamUUID                                           
0000ea7a  periPrivacyFlagUUID                                         
20002538  pfnBMAlloc                                                  
2000253c  pfnBMFree                                                   
20000548  pinGpioState                                                
0000ea5c  primaryServiceUUID                                          
20004fac  ratChanInfo                                                 
0000ea7c  reconnectAddrUUID                                           
0000ea64  reportRefUUID                                               
0000e8ac  resourceDB                                                  
0000e8f8  rfDriverTable                                               
200020f4  rfRegTbl                                                    
0000b835  saveImageInfo                                               
0000ea6a  secondaryServiceUUID                                        
20000521  selfEntityMain                                              
20000528  sem                                                         
0000ea72  servCharCfgUUID                                             
0000ea80  serviceChangedUUID                                          
0000f110  skCBs                                                       
0000f2a4  skServUUID                                                  
0000e9f4  spiCC26XXDMAHWAttrs                                         
20002ea0  spiCC26XXDMAObjects                                         
10016d29  sspAesDecrypt_Sw                                            
10016af5  sspAesEncryptBasic_Sw                                       
10016a99  sspAesEncryptKeyExp_Sw                                      
10016979  sspAesEncrypt_Sw                                            
10016985  sspKeyExpansion_Sw                                          
10016975  ssp_KeyInit_Sw                                              
0000dea9  strlen                                                      
20002448  ti_sysbios_BIOS_Module__state__V                            
0000e6c3  ti_sysbios_BIOS_RtsGateProxy_enter__E                       
0000e6c7  ti_sysbios_BIOS_RtsGateProxy_leave__E                       
0000e6df  ti_sysbios_BIOS_RtsGateProxy_query__E                       
0000b895  ti_sysbios_BIOS_atExitFunc__I                               
0000dcc3  ti_sysbios_BIOS_exitFunc__I                                 
0000e09d  ti_sysbios_BIOS_exit__E                                     
0000e0ad  ti_sysbios_BIOS_getCpuFreq__E                               
0000e3d9  ti_sysbios_BIOS_getThreadType__E                            
000079b7  ti_sysbios_BIOS_linkedWithIncorrectBootLibrary__E           
00007bab  ti_sysbios_BIOS_nullFunc__I                                 
0000cbd1  ti_sysbios_BIOS_registerRTSLock__I                          
0000cbf5  ti_sysbios_BIOS_removeRTSLock__I                            
0000cff5  ti_sysbios_BIOS_rtsLock__I                                  
0000db7d  ti_sysbios_BIOS_rtsUnlock__I                                
0000e0bd  ti_sysbios_BIOS_setThreadType__E                            
0000b8c5  ti_sysbios_BIOS_startFunc__I                                
0000e0cd  ti_sysbios_BIOS_start__E                                    
00005579  ti_sysbios_family_arm_cc26xx_Boot_trimDevice                
0000db95  ti_sysbios_family_arm_cc26xx_Timer_Module__startupDone__F   
0000db95  ti_sysbios_family_arm_cc26xx_Timer_Module__startupDone__S   
2000256c  ti_sysbios_family_arm_cc26xx_Timer_Module__state__V         
0000cc19  ti_sysbios_family_arm_cc26xx_Timer_Module_startup__E        
200021e0  ti_sysbios_family_arm_cc26xx_Timer_Object__table__V         
0000d015  ti_sysbios_family_arm_cc26xx_Timer_dynamicStub__E           
0000e6cb  ti_sysbios_family_arm_cc26xx_Timer_getCount64__E            
0000ac35  ti_sysbios_family_arm_cc26xx_Timer_getCurrentTick__E        
0000c939  ti_sysbios_family_arm_cc26xx_Timer_getMaxTicks__E           
0000b2d5  ti_sysbios_family_arm_cc26xx_Timer_initDevice__I            
0000cd53  ti_sysbios_family_arm_cc26xx_Timer_postInit__I              
0000b4d3  ti_sysbios_family_arm_cc26xx_Timer_setNextTick__E           
0000e6cf  ti_sysbios_family_arm_cc26xx_Timer_setPeriod__E             
0000b8f5  ti_sysbios_family_arm_cc26xx_Timer_setThreshold__I          
00007a81  ti_sysbios_family_arm_cc26xx_Timer_start__E                 
0000f1f0  ti_sysbios_family_arm_cc26xx_Timer_startupNeeded__C         
0000cc3d  ti_sysbios_family_arm_cc26xx_Timer_startup__E               
0000f1f4  ti_sysbios_family_arm_m3_Hwi_E_alreadyDefined__C            
0000ac6d  ti_sysbios_family_arm_m3_Hwi_Instance_finalize__E           
00005e95  ti_sysbios_family_arm_m3_Hwi_Instance_init__E               
20002614  ti_sysbios_family_arm_m3_Hwi_Module_State_0_excActive__A    
200025e8  ti_sysbios_family_arm_m3_Hwi_Module_State_0_excContext__A   
200025ec  ti_sysbios_family_arm_m3_Hwi_Module_State_0_excStack__A     
0000f2a8  ti_sysbios_family_arm_m3_Hwi_Module__id__C                  
20002574  ti_sysbios_family_arm_m3_Hwi_Module__root__V                
0000dbad  ti_sysbios_family_arm_m3_Hwi_Module__startupDone__F         
0000dbad  ti_sysbios_family_arm_m3_Hwi_Module__startupDone__S         
200022a0  ti_sysbios_family_arm_m3_Hwi_Module__state__V               
00009991  ti_sysbios_family_arm_m3_Hwi_Module_startup__E              
0000f1f8  ti_sysbios_family_arm_m3_Hwi_NUM_INTERRUPTS__C              
0000ec00  ti_sysbios_family_arm_m3_Hwi_Object__DESC__C                
0000ea2c  ti_sysbios_family_arm_m3_Hwi_Object__PARAMS__C              
0000f1fc  ti_sysbios_family_arm_m3_Hwi_Object__count__C               
00009d61  ti_sysbios_family_arm_m3_Hwi_Object__create__S              
0000d3e1  ti_sysbios_family_arm_m3_Hwi_Object__destruct__S            
0000ded1  ti_sysbios_family_arm_m3_Hwi_Object__get__S                 
200024dc  ti_sysbios_family_arm_m3_Hwi_Object__table__V               
0000e3e5  ti_sysbios_family_arm_m3_Hwi_Params__init__S                
0000f200  ti_sysbios_family_arm_m3_Hwi_ccr__C                         
0000a91d  ti_sysbios_family_arm_m3_Hwi_construct                      
0000e6d3  ti_sysbios_family_arm_m3_Hwi_destruct                       
0000e3f1  ti_sysbios_family_arm_m3_Hwi_disableFxn__E                  
00009da5  ti_sysbios_family_arm_m3_Hwi_disableInterrupt__E            
00008d35  ti_sysbios_family_arm_m3_Hwi_dispatchC__I                   
20003358  ti_sysbios_family_arm_m3_Hwi_dispatchTable                  
0000457d  ti_sysbios_family_arm_m3_Hwi_dispatch__I                    
0000e5b7  ti_sysbios_family_arm_m3_Hwi_doSwiRestore__I                
0000e665  ti_sysbios_family_arm_m3_Hwi_doTaskRestore__I               
0000e3fd  ti_sysbios_family_arm_m3_Hwi_enableFxn__E                   
00009de9  ti_sysbios_family_arm_m3_Hwi_enableInterrupt__E             
0000d035  ti_sysbios_family_arm_m3_Hwi_excHandlerAsm__I               
0000f204  ti_sysbios_family_arm_m3_Hwi_excHandlerFunc__C              
0000d055  ti_sysbios_family_arm_m3_Hwi_excHandler__I                  
0000a2fd  ti_sysbios_family_arm_m3_Hwi_getStackInfo__E                
0000679d  ti_sysbios_family_arm_m3_Hwi_initNVIC__E                    
000099d9  ti_sysbios_family_arm_m3_Hwi_initStacks__E                  
0000f208  ti_sysbios_family_arm_m3_Hwi_nullIsrFunc__C                 
e000e000  ti_sysbios_family_arm_m3_Hwi_nvic                           
0000d61f  ti_sysbios_family_arm_m3_Hwi_pendSV__I                      
0000dbc5  ti_sysbios_family_arm_m3_Hwi_plug__E                        
00008839  ti_sysbios_family_arm_m3_Hwi_postInit__I                    
0000e0dd  ti_sysbios_family_arm_m3_Hwi_post__E                        
0000f20c  ti_sysbios_family_arm_m3_Hwi_priGroup__C                    
20000000  ti_sysbios_family_arm_m3_Hwi_ramVectors                     
00001010  ti_sysbios_family_arm_m3_Hwi_resetVectors                   
0000e66b  ti_sysbios_family_arm_m3_Hwi_restoreFxn__E                  
0000d637  ti_sysbios_family_arm_m3_Hwi_return                         
0000e671  ti_sysbios_family_arm_m3_Hwi_setFunc__E                     
0000d3fd  ti_sysbios_family_arm_m3_Hwi_setPriority__E                 
0000e5bf  ti_sysbios_family_arm_m3_Hwi_startup__E                     
0000dee5  ti_sysbios_family_arm_m3_Hwi_switchFromBootStack__E         
0000e6d7  ti_sysbios_family_arm_m3_TaskSupport_Module__startupDone__S 
00009625  ti_sysbios_family_arm_m3_TaskSupport_buildTaskStack         
0000e409  ti_sysbios_family_arm_m3_TaskSupport_getStackAlignment__E   
0000e0ed  ti_sysbios_family_arm_m3_TaskSupport_glue                   
0000f210  ti_sysbios_family_arm_m3_TaskSupport_stackAlignment__C      
0000bc43  ti_sysbios_family_arm_m3_TaskSupport_start__E               
0000e0fd  ti_sysbios_family_arm_m3_TaskSupport_swap__E                
0000d18f  ti_sysbios_family_xxx_Hwi_switchAndRunFunc                  
000089eb  ti_sysbios_gates_GateHwi_Instance_init__E                   
0000eb50  ti_sysbios_gates_GateHwi_Module__FXNS__C                    
2000257c  ti_sysbios_gates_GateHwi_Module__root__V                    
0000ec20  ti_sysbios_gates_GateHwi_Object__DESC__C                    
0000ede0  ti_sysbios_gates_GateHwi_Object__PARAMS__C                  
0000b925  ti_sysbios_gates_GateHwi_Object__create__S                  
200025f0  ti_sysbios_gates_GateHwi_Object__table__V                   
0000e415  ti_sysbios_gates_GateHwi_enter__E                           
0000e677  ti_sysbios_gates_GateHwi_leave__E                           
0000e6db  ti_sysbios_gates_GateHwi_query__E                           
0000f214  ti_sysbios_gates_GateMutex_Instance_State_sem__O            
0000d419  ti_sysbios_gates_GateMutex_Instance_init__E                 
0000eb74  ti_sysbios_gates_GateMutex_Module__FXNS__C                  
20002584  ti_sysbios_gates_GateMutex_Module__root__V                  
0000ec40  ti_sysbios_gates_GateMutex_Object__DESC__C                  
0000edf8  ti_sysbios_gates_GateMutex_Object__PARAMS__C                
0000b955  ti_sysbios_gates_GateMutex_Object__create__S                
2000248c  ti_sysbios_gates_GateMutex_Object__table__V                 
0000b985  ti_sysbios_gates_GateMutex_enter__E                         
0000dbdd  ti_sysbios_gates_GateMutex_leave__E                         
0000e6df  ti_sysbios_gates_GateMutex_query__E                         
0000dbad  ti_sysbios_hal_Hwi_HwiProxy_Module__startupDone__S          
0000e10d  ti_sysbios_hal_Hwi_HwiProxy_Object__create__S               
0000e3e5  ti_sysbios_hal_Hwi_HwiProxy_Params__init__S                 
0000d435  ti_sysbios_hal_Hwi_HwiProxy_create                          
00009da5  ti_sysbios_hal_Hwi_HwiProxy_disableInterrupt__E             
0000e3f1  ti_sysbios_hal_Hwi_HwiProxy_disable__E                      
00009de9  ti_sysbios_hal_Hwi_HwiProxy_enableInterrupt__E              
0000e3fd  ti_sysbios_hal_Hwi_HwiProxy_enable__E                       
0000a2fd  ti_sysbios_hal_Hwi_HwiProxy_getStackInfo__E                 
0000e0dd  ti_sysbios_hal_Hwi_HwiProxy_post__E                         
0000e66b  ti_sysbios_hal_Hwi_HwiProxy_restore__E                      
0000e5bf  ti_sysbios_hal_Hwi_HwiProxy_startup__E                      
0000dee5  ti_sysbios_hal_Hwi_HwiProxy_switchFromBootStack__E          
0000c9d7  ti_sysbios_hal_Hwi_Instance_init__E                         
2000258c  ti_sysbios_hal_Hwi_Module__root__V                          
0000df57  ti_sysbios_hal_Hwi_Module_startup__E                        
0000ec60  ti_sysbios_hal_Hwi_Object__DESC__C                          
0000ea88  ti_sysbios_hal_Hwi_Object__PARAMS__C                        
0000e421  ti_sysbios_hal_Hwi_Params__init__S                          
00009a21  ti_sysbios_hal_Hwi_create                                   
0000c199  ti_sysbios_hal_Hwi_initStack                                
0000aca5  ti_sysbios_knl_Clock_Instance_init__E                       
0000f218  ti_sysbios_knl_Clock_Module_State_clockQ__O                 
20002594  ti_sysbios_knl_Clock_Module__root__V                        
2000241c  ti_sysbios_knl_Clock_Module__state__V                       
0000d075  ti_sysbios_knl_Clock_Module_startup__E                      
0000ec80  ti_sysbios_knl_Clock_Object__DESC__C                        
0000eb98  ti_sysbios_knl_Clock_Object__PARAMS__C                      
2000246c  ti_sysbios_knl_Clock_Object__table__V                       
0000e42d  ti_sysbios_knl_Clock_Params__init__S                        
0000db95  ti_sysbios_knl_Clock_TimerProxy_Module__startupDone__S      
0000e6e3  ti_sysbios_knl_Clock_TimerProxy_getCurrentTick__E           
0000e6e7  ti_sysbios_knl_Clock_TimerProxy_getMaxTicks__E              
0000e6eb  ti_sysbios_knl_Clock_TimerProxy_setNextTick__E              
0000cc3d  ti_sysbios_knl_Clock_TimerProxy_startup__E                  
0000c961  ti_sysbios_knl_Clock_addI__E                                
0000b309  ti_sysbios_knl_Clock_construct                              
0000acdd  ti_sysbios_knl_Clock_create                                 
0000def9  ti_sysbios_knl_Clock_doTick__I                              
0000c1c5  ti_sysbios_knl_Clock_getTicksUntilInterrupt__E              
0000d095  ti_sysbios_knl_Clock_getTicks__E                            
0000e6ef  ti_sysbios_knl_Clock_isActive__E                            
00008f23  ti_sysbios_knl_Clock_logTick__E                             
0000e6f3  ti_sysbios_knl_Clock_removeI__E                             
0000d451  ti_sysbios_knl_Clock_scheduleNextTick__E                    
0000e6f7  ti_sysbios_knl_Clock_setPeriod__E                           
0000e6fb  ti_sysbios_knl_Clock_setTimeout__E                          
00007881  ti_sysbios_knl_Clock_startI__E                              
0000dcd9  ti_sysbios_knl_Clock_start__E                               
0000d0b5  ti_sysbios_knl_Clock_stop__E                                
0000f21c  ti_sysbios_knl_Clock_tickPeriod__C                          
0000f220  ti_sysbios_knl_Clock_triggerClock__C                        
000092df  ti_sysbios_knl_Clock_triggerFunc__I                         
00006ced  ti_sysbios_knl_Clock_walkQueueDynamic__E                    
00005ba9  ti_sysbios_knl_Clock_workFuncDynamic__E                     
0000f224  ti_sysbios_knl_Idle_funcList__A                             
0000f1b8  ti_sysbios_knl_Idle_funcList__C                             
0000e5c7  ti_sysbios_knl_Idle_loop__E                                 
0000d0d5  ti_sysbios_knl_Idle_run__E                                  
0000e67d  ti_sysbios_knl_Queue_Instance_init__E                       
2000259c  ti_sysbios_knl_Queue_Module__root__V                        
0000eca0  ti_sysbios_knl_Queue_Object__DESC__C                        
0000ee10  ti_sysbios_knl_Queue_Object__PARAMS__C                      
0000d46d  ti_sysbios_knl_Queue_Object__destruct__S                    
0000e439  ti_sysbios_knl_Queue_Object__get__S                         
0000c1f1  ti_sysbios_knl_Queue_construct                              
0000e445  ti_sysbios_knl_Queue_dequeue__E                             
0000e6ff  ti_sysbios_knl_Queue_destruct                               
0000e683  ti_sysbios_knl_Queue_elemClear__E                           
0000e299  ti_sysbios_knl_Queue_empty__E                               
0000e451  ti_sysbios_knl_Queue_enqueue__E                             
0000d489  ti_sysbios_knl_Queue_get__E                                 
0000e703  ti_sysbios_knl_Queue_head__E                                
0000e707  ti_sysbios_knl_Queue_insert__E                              
0000e70b  ti_sysbios_knl_Queue_next__E                                
0000d4a5  ti_sysbios_knl_Queue_put__E                                 
0000e2a7  ti_sysbios_knl_Queue_remove__E                              
0000f228  ti_sysbios_knl_Semaphore_Instance_State_pendQ__O            
0000e11d  ti_sysbios_knl_Semaphore_Instance_finalize__E               
0000cc61  ti_sysbios_knl_Semaphore_Instance_init__E                   
200025a4  ti_sysbios_knl_Semaphore_Module__root__V                    
0000ecc0  ti_sysbios_knl_Semaphore_Object__DESC__C                    
0000ebbc  ti_sysbios_knl_Semaphore_Object__PARAMS__C                  
0000d0f5  ti_sysbios_knl_Semaphore_Object__destruct__S                
0000e45d  ti_sysbios_knl_Semaphore_Params__init__S                    
0000b9b5  ti_sysbios_knl_Semaphore_construct                          
0000b33d  ti_sysbios_knl_Semaphore_create                             
0000e70f  ti_sysbios_knl_Semaphore_destruct                           
0000c21d  ti_sysbios_knl_Semaphore_pendTimeout__I                     
00004255  ti_sysbios_knl_Semaphore_pend__E                            
00007ae5  ti_sysbios_knl_Semaphore_post__E                            
00009f3b  ti_sysbios_knl_Swi_Instance_finalize__E                     
00008891  ti_sysbios_knl_Swi_Instance_init__E                         
20002304  ti_sysbios_knl_Swi_Module_State_0_readyQ__A                 
200025ac  ti_sysbios_knl_Swi_Module__root__V                          
200024a8  ti_sysbios_knl_Swi_Module__state__V                         
0000cc85  ti_sysbios_knl_Swi_Module_startup__E                        
0000ece0  ti_sysbios_knl_Swi_Object__DESC__C                          
0000eab4  ti_sysbios_knl_Swi_Object__PARAMS__C                        
0000f22c  ti_sysbios_knl_Swi_Object__count__C                         
0000d4c1  ti_sysbios_knl_Swi_Object__destruct__S                      
0000df0d  ti_sysbios_knl_Swi_Object__get__S                           
20002334  ti_sysbios_knl_Swi_Object__table__V                         
0000e469  ti_sysbios_knl_Swi_Params__init__S                          
0000ad15  ti_sysbios_knl_Swi_construct                                
0000e713  ti_sysbios_knl_Swi_destruct                                 
0000e12d  ti_sysbios_knl_Swi_disable__E                               
0000e13d  ti_sysbios_knl_Swi_enabled__E                               
0000e475  ti_sysbios_knl_Swi_getTrigger__E                            
0000dbf5  ti_sysbios_knl_Swi_or__E                                    
0000e717  ti_sysbios_knl_Swi_postInit__I                              
00009e2d  ti_sysbios_knl_Swi_post__E                                  
000078e9  ti_sysbios_knl_Swi_restoreHwi__E                            
0000b371  ti_sysbios_knl_Swi_restore__E                               
00009155  ti_sysbios_knl_Swi_runLoop__I                               
000088e9  ti_sysbios_knl_Swi_run__I                                   
00008d89  ti_sysbios_knl_Swi_schedule__I                              
0000e689  ti_sysbios_knl_Swi_startup__E                               
20002ca0  ti_sysbios_knl_Task_Instance_State_0_stack__A               
00004321  ti_sysbios_knl_Task_Instance_init__E                        
200025f4  ti_sysbios_knl_Task_Module_State_0_idleTask__A              
20002364  ti_sysbios_knl_Task_Module_State_0_readyQ__A                
0000f230  ti_sysbios_knl_Task_Module_State_inactiveQ__O               
200025b4  ti_sysbios_knl_Task_Module__root__V                         
20002228  ti_sysbios_knl_Task_Module__state__V                        
00008359  ti_sysbios_knl_Task_Module_startup__E                       
0000ed00  ti_sysbios_knl_Task_Object__DESC__C                         
0000e980  ti_sysbios_knl_Task_Object__PARAMS__C                       
0000f234  ti_sysbios_knl_Task_Object__count__C                        
0000e14d  ti_sysbios_knl_Task_Object__get__S                          
20002190  ti_sysbios_knl_Task_Object__table__V                        
0000e481  ti_sysbios_knl_Task_Params__init__S                         
0000e6d7  ti_sysbios_knl_Task_SupportProxy_Module__startupDone__S     
0000e409  ti_sysbios_knl_Task_SupportProxy_getStackAlignment__E       
0000bc43  ti_sysbios_knl_Task_SupportProxy_start__E                   
0000e0fd  ti_sysbios_knl_Task_SupportProxy_swap__E                    
0000f238  ti_sysbios_knl_Task_allBlockedFunc__C                       
00009e71  ti_sysbios_knl_Task_allBlockedFunction__I                   
0000b3a5  ti_sysbios_knl_Task_blockI__E                               
0000ad4d  ti_sysbios_knl_Task_construct                               
00009eb5  ti_sysbios_knl_Task_create                                  
0000f23c  ti_sysbios_knl_Task_defaultStackHeap__C                     
0000f240  ti_sysbios_knl_Task_defaultStackSize__C                     
0000e15d  ti_sysbios_knl_Task_disable__E                              
0000e68f  ti_sysbios_knl_Task_enable__E                               
0000d4dd  ti_sysbios_knl_Task_enter__I                                
0000a993  ti_sysbios_knl_Task_exit__E                                 
0000f244  ti_sysbios_knl_Task_numConstructedTasks__C                  
0000681d  ti_sysbios_knl_Task_postInit__I                             
0000b9e5  ti_sysbios_knl_Task_processVitalTaskFlag__I                 
0000d115  ti_sysbios_knl_Task_restoreHwi__E                           
0000c989  ti_sysbios_knl_Task_restore__E                              
00009671  ti_sysbios_knl_Task_schedule__I                             
0000e48d  ti_sysbios_knl_Task_self__E                                 
00005801  ti_sysbios_knl_Task_setPri__E                               
0000d639  ti_sysbios_knl_Task_sleepTimeout__I                         
0000716d  ti_sysbios_knl_Task_sleep__E                                
000083b5  ti_sysbios_knl_Task_startCore__E                            
0000e71b  ti_sysbios_knl_Task_startup__E                              
0000e105  ti_sysbios_knl_Task_swapReturn                              
0000c249  ti_sysbios_knl_Task_unblockI__E                             
0000dc0d  ti_sysbios_knl_Task_unblock__E                              
20002c9c  trngCC26XXObjects                                           
0000f11c  trngDriverTable                                             
0000eb04  txPowerTable                                                
0000f1e0  txPwrTbl                                                    
0000f1c0  udmaHWAttrs                                                 
20003498  udmaObjects                                                 
20002394  user0Cfg                                                    
0000c275  utilExtractUuid16                                           
0000ea82  validRangeUUID                                              
00009ab1  xdc_runtime_Core_assignParams__I                            
00009af9  xdc_runtime_Core_constructObject__I                         
0000689d  xdc_runtime_Core_createObject__I                            
0000dc25  xdc_runtime_Core_destructObject__I                          
0000f248  xdc_runtime_Error_E_memory__C                               
0000d4f9  xdc_runtime_Error_check__E                                  
0000f24c  xdc_runtime_Error_policyFxn__C                              
0000d1cb  xdc_runtime_Error_policySpin__E                             
0000eb2b  xdc_runtime_Error_policy__C                                 
0000d515  xdc_runtime_Error_raiseX__E                                 
0000e499  xdc_runtime_Gate_enterSystem__E                             
0000e16d  xdc_runtime_Gate_leaveSystem__E                             
0000f250  xdc_runtime_HeapMin_E_freeError__C                          
20002618  xdc_runtime_HeapMin_Instance_State_0_buf__A                 
0000e2b5  xdc_runtime_HeapMin_Instance_init__E                        
0000eadc  xdc_runtime_HeapMin_Module__FXNS__C                         
0000f2aa  xdc_runtime_HeapMin_Module__id__C                           
200025bc  xdc_runtime_HeapMin_Module__root__V                         
0000ed20  xdc_runtime_HeapMin_Object__DESC__C                         
0000ed40  xdc_runtime_HeapMin_Object__PARAMS__C                       
0000ba15  xdc_runtime_HeapMin_Object__create__S                       
20002518  xdc_runtime_HeapMin_Object__table__V                        
0000a33d  xdc_runtime_HeapMin_alloc__E                                
0000f2ac  xdc_runtime_HeapMin_freeError__C                            
0000ba45  xdc_runtime_HeapMin_free__E                                 
0000e4a5  xdc_runtime_HeapMin_getStats__E                             
0000e71f  xdc_runtime_HeapMin_isBlocking__E                           
0000f254  xdc_runtime_IGateProvider_Interface__BASE__C                
0000f258  xdc_runtime_IHeap_Interface__BASE__C                        
0000f25c  xdc_runtime_IModule_Interface__BASE__C                      
0000e6db  xdc_runtime_Main_Module_GateProxy_query__E                  
0000e54d  xdc_runtime_Memory_HeapProxy_alloc__E                       
0000f2ae  xdc_runtime_Memory_Module__id__C                            
200025f8  xdc_runtime_Memory_Module__state__V                         
000074d1  xdc_runtime_Memory_alloc__E                                 
0000e4b1  xdc_runtime_Memory_calloc__E                                
0000f260  xdc_runtime_Memory_defaultHeapInstance__C                   
0000e4bd  xdc_runtime_Memory_getMaxDefaultTypeAlign__E                
0000d531  xdc_runtime_Memory_valloc__E                                
200025c4  xdc_runtime_Startup_Module__state__V                        
00000001  xdc_runtime_Startup__EXECFXN__C                             
00000001  xdc_runtime_Startup__RESETFXN__C                            
0000f264  xdc_runtime_Startup_execImpl__C                             
000091a5  xdc_runtime_Startup_exec__E                                 
0000df69  xdc_runtime_Startup_exec__I                                 
0000f1c8  xdc_runtime_Startup_firstFxns__A                            
0000f1d0  xdc_runtime_Startup_firstFxns__C                            
0000f1d8  xdc_runtime_Startup_lastFxns__C                             
0000f268  xdc_runtime_Startup_maxPasses__C                            
00005579  xdc_runtime_Startup_reset__I                                
0000e4c9  xdc_runtime_Startup_rtsDone__E                              
0000f07c  xdc_runtime_Startup_sfxnRts__A                              
0000f26c  xdc_runtime_Startup_sfxnRts__C                              
0000ed7c  xdc_runtime_Startup_sfxnTab__A                              
0000f270  xdc_runtime_Startup_sfxnTab__C                              
0000350d  xdc_runtime_Startup_startMods__I                            
0000f274  xdc_runtime_SysCallback_abortFxn__C                         
0000e17d  xdc_runtime_SysCallback_abort__E                            
0000d653  xdc_runtime_SysCallback_defaultAbort                        
0000dcef  xdc_runtime_SysCallback_defaultExit                         
0000f278  xdc_runtime_SysCallback_exitFxn__C                          
0000e18d  xdc_runtime_SysCallback_exit__E                             
0000e723  xdc_runtime_System_Module_GateProxy_enter__E                
0000e727  xdc_runtime_System_Module_GateProxy_leave__E                
0000e6db  xdc_runtime_System_Module_GateProxy_query__E                
0000f27c  xdc_runtime_System_Module__gateObj__C                       
200025cc  xdc_runtime_System_Module__state__V                         
0000e695  xdc_runtime_System_Module_startup__E                        
0000e17d  xdc_runtime_System_SupportProxy_abort__E                    
0000e18d  xdc_runtime_System_SupportProxy_exit__E                     
0000f280  xdc_runtime_System_abortFxn__C                              
0000df7b  xdc_runtime_System_abortSpin__E                             
00008ce5  xdc_runtime_System_abortStd__E                              
0000d54d  xdc_runtime_System_abort__E                                 
0000ad85  xdc_runtime_System_atexit__E                                
0000f284  xdc_runtime_System_exitFxn__C                               
0000e2c3  xdc_runtime_System_exitSpin__E                              
00008ced  xdc_runtime_System_exitStd__E                               
0000dc3d  xdc_runtime_System_exit__E                                  
0000f288  xdc_runtime_System_maxAtexitHandlers__C                     
0000ba75  xdc_runtime_System_processAtExit__E                         
10015d19  zADD                                                        
10015eb5  zADD32                                                      
10015de9  zMACC32                                                     
10015f0d  zMULT32                                                     
10015bcd  zSET                                                        
10015d5d  zSUB                                                        
10015e69  zSUB32                                                      


GLOBAL SYMBOLS: SORTED BY Symbol Address 

address   name                                                        
-------   ----                                                        
00000000  __ASM__                                                     
00000001  xdc_runtime_Startup__EXECFXN__C                             
00000001  xdc_runtime_Startup__RESETFXN__C                            
0000008e  __ISA__                                                     
000000a0  __PLAT__                                                    
000000c7  __TARG__                                                    
000000ec  __TRDR__                                                    
00000200  __STACK_SIZE                                                
00001000  _imgHdr                                                     
00001010  ti_sysbios_family_arm_m3_Hwi_resetVectors                   
0000164d  GAPRole_SetParameter                                        
00001889  Power_sleep                                                 
00001ab1  NOROM_SysCtrlSetRechargeBeforePowerDown                     
00001cb5  __aeabi_uldivmod                                            
00002269  PIN_init                                                    
00002411  RF_cancelCmd                                                
000025b9  PowerCC26XX_doCalibrate                                     
0000273d  RF_postCmd                                                  
00002a05  SPICC26XXDMA_open                                           
00002b51  SensorTagFactoryReset_storeCurrentImage                     
00002c89  NOROM_SetupAfterColdResetWakeupFromShutDownCfg3             
00002db9  GAPRole_GetParameter                                        
00002ed9  Power_init                                                  
00003219  I2CCC26XX_open                                              
00003315  SensorMpu9250_magRead                                       
0000350d  xdc_runtime_Startup_startMods__I                            
00003605  SensorBmp280_convert                                        
000036f9  SensorTagMov_processSensorEvent                             
000037ed  SPICC26XXDMA_transferCancel                                 
00003d69  SensorMpu9250_enableWom                                     
00003e45  NOROM_SetupAfterColdResetWakeupFromShutDownCfg2             
00003f19  Power_releaseDependency                                     
00003fed  Power_setDependency                                         
000040bd  SPICC26XXDMA_transfer                                       
00004255  ti_sysbios_knl_Semaphore_pend__E                            
00004321  ti_sysbios_knl_Task_Instance_init__E                        
0000457d  ti_sysbios_family_arm_m3_Hwi_dispatch__I                    
00004645  I2CCC26XX_transfer                                          
00004ba1  RF_open                                                     
00004c61  SensorTagMov_processCharChangeEvt                           
00004de1  PowerCC26XX_standbyPolicy                                   
00005009  SensorTagFactoryReset_hasImage                              
000050bd  SensorTagIO_processCharChangeEvt                            
0000516d  SensorTagKeys_processEvent                                  
0000537d  OAD_imgBlockWrite                                           
00005579  NOROM_SetupTrimDevice                                       
00005579  ti_sysbios_family_arm_cc26xx_Boot_trimDevice                
00005579  xdc_runtime_Startup_reset__I                                
00005761  __TI_auto_init                                              
00005801  ti_sysbios_knl_Task_setPri__E                               
000058a1  OAD_imgIdentifyWrite                                        
000059d9  SensorTmp007_test                                           
00005a75  __aeabi_memcpy                                              
00005a75  __aeabi_memcpy4                                             
00005a75  __aeabi_memcpy8                                             
00005a75  memcpy                                                      
00005b11  PIN_open                                                    
00005ba9  ti_sysbios_knl_Clock_workFuncDynamic__E                     
00005c41  SensorBmp280_test                                           
00005cd7  DefaultAssertCback                                          
00005cd9  GATTServApp_ProcessCharCfg                                  
00005d6d  SPICC26XXDMA_control                                        
00005e01  SensorTagOpt_processCharChangeEvt                           
00005e95  ti_sysbios_family_arm_m3_Hwi_Instance_init__E               
000060d9  DevInfo_SetParameter                                        
00006165  I2CCC26XX_cancel                                            
000061ed  NOROM_OSCHF_GetStartupTime                                  
000061ed  PowerCC26XX_getXoscStartupTime                              
00006275  SensorTagBar_processCharChangeEvt                           
000062fd  SensorTagRegister_processCharChangeEvt                      
0000640d  ICall_heapMalloc                                            
00006515  TRNGCC26XX_getNumber                                        
0000661d  RF_pendCmd                                                  
0000669d  SensorTagTmp_processCharChangeEvt                           
0000679d  ti_sysbios_family_arm_m3_Hwi_initNVIC__E                    
0000681d  ti_sysbios_knl_Task_postInit__I                             
0000689d  xdc_runtime_Core_createObject__I                            
0000691d  SensorTagHum_processCharChangeEvt                           
00006a91  __aeabi_memclr                                              
00006a91  __aeabi_memclr4                                             
00006a91  __aeabi_memclr8                                             
00006a93  __aeabi_memset                                              
00006a93  __aeabi_memset4                                             
00006a93  __aeabi_memset8                                             
00006a99  memset                                                      
00006b0d  NOROM_SetupAfterColdResetWakeupFromShutDownCfg1             
00006bfd  SensorTag_testExecute                                       
00006ced  ti_sysbios_knl_Clock_walkQueueDynamic__E                    
00006d65  ICallPlatform_pwrUpdActivityCounter                         
00006e4d  PowerCC26XX_auxISR                                          
00006ec1  SensorTagRegister_reset                                     
00006fa9  ExtFlash_write                                              
0000701d  NOROM_ChipInfo_GetHwRevision                                
0000708d  SensorI2C_select                                            
0000716d  ti_sysbios_knl_Task_sleep__E                                
000071dd  ICall_createRemoteTasks                                     
00007249  ICall_heapInit                                              
000072b5  NOROM_SetupGetTrimForAmpcompCtrl                            
00007321  PowerCC26XX_calibrate                                       
0000738d  SensorMpu9250_reset                                         
000074d1  xdc_runtime_Memory_alloc__E                                 
000075a9  NOROM_SetupGetTrimForAnabypassValue1                        
00007611  NOROM_SysCtrl_DCDC_VoltageConditionalControl                
00007679  OADTarget_getCurrentImageHeader                             
000076e1  SensorTagConnectionControl_update                           
00007749  SensorTagFactoryReset_extFlashErase                         
000077b1  SensorTmp007_read                                           
00007881  ti_sysbios_knl_Clock_startI__E                              
000078e9  ti_sysbios_knl_Swi_restoreHwi__E                            
00007951  SensorHdc1000_test                                          
000079b7  ti_sysbios_BIOS_linkedWithIncorrectBootLibrary__E           
000079b9  I2CCC26XX_close                                             
00007a1d  PIN_add                                                     
00007a81  ti_sysbios_family_arm_cc26xx_Timer_start__E                 
00007ae5  ti_sysbios_knl_Semaphore_post__E                            
00007bab  ti_sysbios_BIOS_nullFunc__I                                 
00007ccd  PowerCC26XX_RCOSC_clockFunc                                 
00007d2d  RF_getCurrentTime                                           
00007ead  Barometer_setParameter                                      
00007f09  ExtFlash_erase                                              
00007fc1  NOROM_OSCHF_AttemptToSwitchToXosc                           
0000801d  NOROM_SysCtrlAdjustRechargeAfterPowerDown                   
00008079  OADTarget_validateNewImage                                  
00008131  SensorMpu9250_magReset                                      
0000818d  SensorMpu9250_test                                          
000081e9  UDMACC26XX_open                                             
00008359  ti_sysbios_knl_Task_Module_startup__E                       
000083b5  ti_sysbios_knl_Task_startCore__E                            
00008411  SPICC26XXDMA_close                                          
00008579  Humidity_setParameter                                       
000085d1  IRTemp_setParameter                                         
00008629  Movement_setParameter                                       
00008681  OAD_addService                                              
000086d9  PIN_remove                                                  
00008731  PowerCC26XX_initiateCalibration                             
00008839  ti_sysbios_family_arm_m3_Hwi_postInit__I                    
00008891  ti_sysbios_knl_Swi_Instance_init__E                         
000088e9  ti_sysbios_knl_Swi_run__I                                   
000089eb  ti_sysbios_gates_GateHwi_Instance_init__E                   
000089ed  Optic_setParameter                                          
00008a41  SensorI2C_open                                              
00008a95  SensorTagMov_init                                           
00008ae9  Util_rescheduleClock                                        
00008ce1  C$$EXIT                                                     
00008ce5  abort                                                       
00008ce5  xdc_runtime_System_abortStd__E                              
00008ced  exit                                                        
00008ced  xdc_runtime_System_exitStd__E                               
00008d35  ti_sysbios_family_arm_m3_Hwi_dispatchC__I                   
00008d89  ti_sysbios_knl_Swi_schedule__I                              
00008e81  SensorTagConnControl_processCharChangeEvt                   
00008ed3  ExtFlash_read                                               
00008f23  ti_sysbios_knl_Clock_logTick__E                             
00008f25  GAP_DeviceInit                                              
00008f75  GAP_UpdateAdvertisingData                                   
00009015  NOROM_SetupSetCacheModeAccordingToCcfgSetting               
00009065  RF_getInfo                                                  
00009155  ti_sysbios_knl_Swi_runLoop__I                               
000091a5  xdc_runtime_Startup_exec__E                                 
000091f5  SensorOpt3001_test                                          
000092df  ti_sysbios_knl_Clock_triggerFunc__I                         
000093c5  NOROM_OSCClockSourceSet                                     
00009411  SensorTagOpt_init                                           
000094a9  Util_constructClock                                         
000095d9  copy_in                                                     
00009625  ti_sysbios_family_arm_m3_TaskSupport_buildTaskStack         
00009671  ti_sysbios_knl_Task_schedule__I                             
000096bd  GATTServApp_ProcessCCCWriteReq                              
00009707  SensorOpt3001_read                                          
00009799  NOROM_ChipInfo_GetChipFamily                                
000097e1  NOROM_DDI16BitfieldWrite                                    
00009991  ti_sysbios_family_arm_m3_Hwi_Module_startup__E              
000099d9  ti_sysbios_family_arm_m3_Hwi_initStacks__E                  
00009a21  ti_sysbios_hal_Hwi_create                                   
00009ab1  xdc_runtime_Core_assignParams__I                            
00009af9  xdc_runtime_Core_constructObject__I                         
00009b41  GAP_TerminateLinkReq                                        
00009bc9  SensorHdc1000_read                                          
00009c0d  SensorMpu9250_accSetRange                                   
00009c51  SensorTagIO_blinkLed                                        
00009c95  SensorTagIO_reset                                           
00009cd9  ResetISR                                                    
00009cd9  _c_int00                                                    
00009d61  ti_sysbios_family_arm_m3_Hwi_Object__create__S              
00009da5  ti_sysbios_family_arm_m3_Hwi_disableInterrupt__E            
00009da5  ti_sysbios_hal_Hwi_HwiProxy_disableInterrupt__E             
00009de9  ti_sysbios_family_arm_m3_Hwi_enableInterrupt__E             
00009de9  ti_sysbios_hal_Hwi_HwiProxy_enableInterrupt__E              
00009e2d  ti_sysbios_knl_Swi_post__E                                  
00009e71  ti_sysbios_knl_Task_allBlockedFunction__I                   
00009eb5  ti_sysbios_knl_Task_create                                  
00009f3b  ti_sysbios_knl_Swi_Instance_finalize__E                     
00009f3d  ExtFlash_open                                               
00009fbd  GAPRole_createTask                                          
00009ffd  NOROM_DDI16BitfieldRead                                     
0000a03d  OADTarget_storeImageHeader                                  
0000a07d  RF_getRssi                                                  
0000a0fd  SensorI2C_read                                              
0000a13d  SensorMpu9250_magTest                                       
0000a17d  SensorTagFactoryReset_applyFactoryImage                     
0000a1bd  SensorTagOad_processEvent                                   
0000a1fd  SensorTmp007_enable                                         
0000a2fd  ti_sysbios_family_arm_m3_Hwi_getStackInfo__E                
0000a2fd  ti_sysbios_hal_Hwi_HwiProxy_getStackInfo__E                 
0000a33d  xdc_runtime_HeapMin_alloc__E                                
0000a37d  GAP_GetParamValue                                           
0000a3b9  GATTServApp_RegisterService                                 
0000a3f5  ICallPlatform_pwrConfigACAction                             
0000a431  NOROM_OSC_HPOSCRelativeFrequencyOffsetGet                   
0000a46d  NOROM_RFCSynthPowerDown                                     
0000a4a9  PINCC26XX_getConfig                                         
0000a4e5  RF_runCmd                                                   
0000a521  Register_setParameter                                       
0000a599  SensorBmp280_read                                           
0000a5d5  SensorI2C_writeRead                                         
0000a611  SensorMpu9250_accRead                                       
0000a64d  SensorMpu9250_accReadRange                                  
0000a689  SensorTagBar_createTask                                     
0000a6c5  SensorTagBuzzer_open                                        
0000a701  SensorTagBuzzer_setFrequency                                
0000a73d  SensorTagHum_createTask                                     
0000a779  SensorTagTmp_createTask                                     
0000a7b5  SensorTag_createTask                                        
0000a91d  ti_sysbios_family_arm_m3_Hwi_construct                      
0000a959  SensorMpu9250_irqStatus                                     
0000a993  ti_sysbios_knl_Task_exit__E                                 
0000a9cd  GAPBondMgr_LinkEst                                          
0000aa05  GAPRole_SendUpdateParam                                     
0000aa3d  I2C_init                                                    
0000aaad  SensorI2C_write                                             
0000aae5  SensorMpu9250_gyroRead                                      
0000ab1d  SensorTagOpt_reset                                          
0000ab55  Util_restartClock                                           
0000abfd  linkDB_NumConns                                             
0000ac35  ti_sysbios_family_arm_cc26xx_Timer_getCurrentTick__E        
0000ac6d  ti_sysbios_family_arm_m3_Hwi_Instance_finalize__E           
0000aca5  ti_sysbios_knl_Clock_Instance_init__E                       
0000acdd  ti_sysbios_knl_Clock_create                                 
0000ad15  ti_sysbios_knl_Swi_construct                                
0000ad4d  ti_sysbios_knl_Task_construct                               
0000ad85  xdc_runtime_System_atexit__E                                
0000adbd  UDMACC26XX_close                                            
0000ae29  GAPBondMgr_SetParameter                                     
0000ae5d  GAP_SetParamValue                                           
0000af61  ICall_searchServiceEntity                                   
0000af95  Io_setParameter                                             
0000afc9  NOROM_DDI32RegWrite                                         
0000affd  NOROM_OSCHF_SwitchToRcOscTurnOffXosc                        
0000b031  PIN_setOutputValue                                          
0000b065  PowerCC26XX_isStableXOSC_HF                                 
0000b0cd  Register_getParameter                                       
0000b101  SensorBmp280_init                                           
0000b135  SensorMpu9250_enable                                        
0000b169  SensorTagKeys_processKeyLeft                                
0000b19d  SensorTagKeys_processKeyRight                               
0000b1d1  SensorTagKeys_processRelay                                  
0000b239  osal_snv_read                                               
0000b26d  osal_snv_write                                              
0000b2d5  ti_sysbios_family_arm_cc26xx_Timer_initDevice__I            
0000b309  ti_sysbios_knl_Clock_construct                              
0000b33d  ti_sysbios_knl_Semaphore_create                             
0000b371  ti_sysbios_knl_Swi_restore__E                               
0000b3a5  ti_sysbios_knl_Task_blockI__E                               
0000b4d3  ti_sysbios_family_arm_cc26xx_Timer_setNextTick__E           
0000b505  ExtFlash_close                                              
0000b565  ICallPlatform_pwrRegisterNotify                             
0000b5f5  Movement_getParameter                                       
0000b625  NOROM_SetupSetAonRtcSubSecInc                               
0000b655  NOROM_TRNGConfigure                                         
0000b685  PIN_setInterrupt                                            
0000b6b5  Power_releaseConstraint                                     
0000b6e5  Power_setConstraint                                         
0000b715  SensorMpu9250_powerOn                                       
0000b835  saveImageInfo                                               
0000b895  ti_sysbios_BIOS_atExitFunc__I                               
0000b8c5  ti_sysbios_BIOS_startFunc__I                                
0000b8f5  ti_sysbios_family_arm_cc26xx_Timer_setThreshold__I          
0000b925  ti_sysbios_gates_GateHwi_Object__create__S                  
0000b955  ti_sysbios_gates_GateMutex_Object__create__S                
0000b985  ti_sysbios_gates_GateMutex_enter__E                         
0000b9b5  ti_sysbios_knl_Semaphore_construct                          
0000b9e5  ti_sysbios_knl_Task_processVitalTaskFlag__I                 
0000ba15  xdc_runtime_HeapMin_Object__create__S                       
0000ba45  xdc_runtime_HeapMin_free__E                                 
0000ba75  xdc_runtime_System_processAtExit__E                         
0000bbb9  SensorOpt3001_enable                                        
0000bbe7  main                                                        
0000bc43  ti_sysbios_family_arm_m3_TaskSupport_start__E               
0000bc43  ti_sysbios_knl_Task_SupportProxy_start__E                   
0000bc9d  GAPBondMgr_Register                                         
0000bcc9  ICall_freeImpl                                              
0000bcc9  ICall_heapFree                                              
0000bf5d  NOROM_SetupGetTrimForRadcExtCfg                             
0000bf89  PINCC26XX_setMux                                            
0000bfb5  PIN_setConfig                                               
0000bfe1  SensorHdc1000_init                                          
0000c00d  SensorHdc1000_start                                         
0000c039  SensorI2C_writeReg                                          
0000c065  SensorMpu9250_init                                          
0000c091  SensorTagBar_init                                           
0000c0bd  SensorTagBatt_init                                          
0000c0e9  SensorTagHum_init                                           
0000c115  SensorTagMov_reset                                          
0000c199  ti_sysbios_hal_Hwi_initStack                                
0000c1c5  ti_sysbios_knl_Clock_getTicksUntilInterrupt__E              
0000c1f1  ti_sysbios_knl_Queue_construct                              
0000c21d  ti_sysbios_knl_Semaphore_pendTimeout__I                     
0000c249  ti_sysbios_knl_Task_unblockI__E                             
0000c275  utilExtractUuid16                                           
0000c2cb  TRNGCC26XX_isParamValid                                     
0000c2f5  Util_enqueueMsg                                             
0000c349  Barometer_addService                                        
0000c371  Batt_AddService                                             
0000c399  CcService_addService                                        
0000c3c1  CcService_setParameter                                      
0000c3e9  GATTServApp_WriteCharCfg                                    
0000c411  Humidity_addService                                         
0000c439  ICall_init                                                  
0000c551  IRTemp_addService                                           
0000c579  Io_addService                                               
0000c5a1  Movement_addService                                         
0000c5c9  NOROM_AONBatMonTemperatureGetDegC                           
0000c5f1  Optic_addService                                            
0000c619  PINCC26XX_getPinCount                                       
0000c641  PowerCC26XX_switchXOSC_HF                                   
0000c669  Power_registerNotify                                        
0000c691  SK_AddService                                               
0000c6b9  SK_SetParameter                                             
0000c709  SafeHapiVoid                                                
0000c731  SensorBmp280_enable                                         
0000c759  SensorTagBar_reset                                          
0000c781  SensorTagBuzzer_close                                       
0000c7a9  SensorTagConnControl_paramUpdateCB                          
0000c7d1  SensorTagKeys_init                                          
0000c7f9  SensorTagOad_init                                           
0000c821  SensorTagTmp_init                                           
0000c849  SensorTagTmp_reset                                          
0000c8c1  TRNGCC26XX_init                                             
0000c939  ti_sysbios_family_arm_cc26xx_Timer_getMaxTicks__E           
0000c961  ti_sysbios_knl_Clock_addI__E                                
0000c989  ti_sysbios_knl_Task_restore__E                              
0000c9b1  List_put                                                    
0000c9d7  ti_sysbios_hal_Hwi_Instance_init__E                         
0000c9fd  Barometer_getParameter                                      
0000ca21  GAPBondMgr_LinkTerm                                         
0000ca45  I2C_open                                                    
0000cab1  SPI_open                                                    
0000cad5  SensorMpu9250_powerOff                                      
0000caf9  SensorTagHum_reset                                          
0000cb1d  SensorTagOpt_processSensorEvent                             
0000cb41  SensorTagRegister_update                                    
0000cb65  getImageFlag                                                
0000cbd1  ti_sysbios_BIOS_registerRTSLock__I                          
0000cbf5  ti_sysbios_BIOS_removeRTSLock__I                            
0000cc19  ti_sysbios_family_arm_cc26xx_Timer_Module_startup__E        
0000cc3d  ti_sysbios_family_arm_cc26xx_Timer_startup__E               
0000cc3d  ti_sysbios_knl_Clock_TimerProxy_startup__E                  
0000cc61  ti_sysbios_knl_Semaphore_Instance_init__E                   
0000cc85  ti_sysbios_knl_Swi_Module_startup__E                        
0000cd31  memcmp                                                      
0000cd53  ti_sysbios_family_arm_cc26xx_Timer_postInit__I              
0000cd75  GATTServApp_InitCharCfg                                     
0000cd95  Humidity_getParameter                                       
0000ce55  IRTemp_getParameter                                         
0000ce75  NOROM_RFCDoorbellSendTo                                     
0000ce95  NOROM_RFCRfTrimRead                                         
0000ceb5  NOROM_SetupGetTrimForXoscHfCtl                              
0000ced5  Optic_getParameter                                          
0000cef5  Power_unregisterNotify                                      
0000cf15  SensorTagBatt_reset                                         
0000cf35  SensorTagIO_init                                            
0000cff5  ti_sysbios_BIOS_rtsLock__I                                  
0000d015  ti_sysbios_family_arm_cc26xx_Timer_dynamicStub__E           
0000d035  ti_sysbios_family_arm_m3_Hwi_excHandlerAsm__I               
0000d055  ti_sysbios_family_arm_m3_Hwi_excHandler__I                  
0000d075  ti_sysbios_knl_Clock_Module_startup__E                      
0000d095  ti_sysbios_knl_Clock_getTicks__E                            
0000d0b5  ti_sysbios_knl_Clock_stop__E                                
0000d0d5  ti_sysbios_knl_Idle_run__E                                  
0000d0f5  ti_sysbios_knl_Semaphore_Object__destruct__S                
0000d115  ti_sysbios_knl_Task_restoreHwi__E                           
0000d153  PIN_close                                                   
0000d171  Power_getTransitionLatency                                  
0000d18f  ti_sysbios_family_xxx_Hwi_switchAndRunFunc                  
0000d1cb  xdc_runtime_Error_policySpin__E                             
0000d1cd  Batt_MeasLevel                                              
0000d1e9  GATT_bm_alloc                                               
0000d205  GATT_bm_free                                                
0000d275  NOROM_OSCClockSourceGet                                     
0000d291  NOROM_SetupGetTrimForAmpcompTh2                             
0000d2ad  NOROM_SetupGetTrimForRcOscLfRtuneCtuneTrim                  
0000d301  RF_runDirectCmd                                             
0000d31d  RF_runImmediateCmd                                          
0000d339  SPI_Params_init                                             
0000d355  SensorTagBatt_processCharChangeEvt                          
0000d38d  TRNGCC26XX_open                                             
0000d3c5  openTRNG                                                    
0000d3e1  ti_sysbios_family_arm_m3_Hwi_Object__destruct__S            
0000d3fd  ti_sysbios_family_arm_m3_Hwi_setPriority__E                 
0000d419  ti_sysbios_gates_GateMutex_Instance_init__E                 
0000d435  ti_sysbios_hal_Hwi_HwiProxy_create                          
0000d451  ti_sysbios_knl_Clock_scheduleNextTick__E                    
0000d46d  ti_sysbios_knl_Queue_Object__destruct__S                    
0000d489  ti_sysbios_knl_Queue_get__E                                 
0000d4a5  ti_sysbios_knl_Queue_put__E                                 
0000d4c1  ti_sysbios_knl_Swi_Object__destruct__S                      
0000d4dd  ti_sysbios_knl_Task_enter__I                                
0000d4f9  xdc_runtime_Error_check__E                                  
0000d515  xdc_runtime_Error_raiseX__E                                 
0000d531  xdc_runtime_Memory_valloc__E                                
0000d54d  xdc_runtime_System_abort__E                                 
0000d569  GATT_Notification                                           
0000d583  ICall_enterCSImpl                                           
0000d5b7  List_remove                                                 
0000d5d1  Util_dequeueMsg                                             
0000d61f  ti_sysbios_family_arm_m3_Hwi_pendSV__I                      
0000d637  ti_sysbios_family_arm_m3_Hwi_return                         
0000d639  ti_sysbios_knl_Task_sleepTimeout__I                         
0000d653  xdc_runtime_SysCallback_defaultAbort                        
0000d655  Barometer_registerAppCBs                                    
0000d66d  Batt_SetParameter                                           
0000d69d  GAPRole_StartDevice                                         
0000d6b5  GAPRole_TerminateConnection                                 
0000d6cd  Humidity_registerAppCBs                                     
0000d6e5  I2C_Params_init                                             
0000d6fd  ICallPlatform_pwrDispense                                   
0000d715  ICallPlatform_pwrRequire                                    
0000d81d  IRTemp_registerAppCBs                                       
0000d835  Movement_registerAppCBs                                     
0000d84d  NOROM_AONRTCCurrentCompareValueGet                          
0000d865  NOROM_ChipInfo_GetPackageType                               
0000d87d  NOROM_OSCHF_TurnOnXosc                                      
0000d895  NOROM_RFCCpeIntGetAndClear                                  
0000d8ad  NOROM_SetupGetTrimForAdcShModeEn                            
0000d8c5  NOROM_SetupGetTrimForAdcShVbufEn                            
0000d8dd  NOROM_SetupGetTrimForAmpcompTh1                             
0000d8f5  NOROM_SetupGetTrimForDblrLoopFilterResetVoltage             
0000d90d  NOROM_SetupGetTrimForRcOscLfIBiasTrim                       
0000d925  NOROM_SetupGetTrimForXoscLfRegulatorAndCmirrwrRatio         
0000d93d  OADTarget_close                                             
0000d955  OADTarget_open                                              
0000d96d  OAD_register                                                
0000d985  Optic_registerAppCBs                                        
0000d99d  PIN_getConfig                                               
0000d9b5  Power_idleFunc                                              
0000d9e5  Register_registerAppCBs                                     
0000da5d  SensorTag_updateAdvertisingData                             
0000dabd  gapRole_clockHandler                                        
0000db35  _args_main                                                  
0000db4d  __aeabi_lmul                                                
0000db7d  ti_sysbios_BIOS_rtsUnlock__I                                
0000db95  ti_sysbios_family_arm_cc26xx_Timer_Module__startupDone__F   
0000db95  ti_sysbios_family_arm_cc26xx_Timer_Module__startupDone__S   
0000db95  ti_sysbios_knl_Clock_TimerProxy_Module__startupDone__S      
0000dbad  ti_sysbios_family_arm_m3_Hwi_Module__startupDone__F         
0000dbad  ti_sysbios_family_arm_m3_Hwi_Module__startupDone__S         
0000dbad  ti_sysbios_hal_Hwi_HwiProxy_Module__startupDone__S          
0000dbc5  ti_sysbios_family_arm_m3_Hwi_plug__E                        
0000dbdd  ti_sysbios_gates_GateMutex_leave__E                         
0000dbf5  ti_sysbios_knl_Swi_or__E                                    
0000dc0d  ti_sysbios_knl_Task_unblock__E                              
0000dc25  xdc_runtime_Core_destructObject__I                          
0000dc3d  xdc_runtime_System_exit__E                                  
0000dc55  AssertHandler                                               
0000dc81  ICall_leaveCSImpl                                           
0000dcad  driverTable_fnSpinlock                                      
0000dcc3  ti_sysbios_BIOS_exitFunc__I                                 
0000dcd9  ti_sysbios_knl_Clock_start__E                               
0000dcef  xdc_runtime_SysCallback_defaultExit                         
0000dcf1  Batt_Register                                               
0000dd05  CcService_registerAppCBs                                    
0000dd19  DevInfo_AddService                                          
0000dd41  Io_getParameter                                             
0000dd55  Io_registerAppCBs                                           
0000dd69  NOROM_AONRTCCurrent64BitValueGet                            
0000dd7d  NOROM_ThisCodeIsBuiltForCC26xxHwRev22AndLater_HaltIfViolated
0000dd91  OADTarget_writeFlash                                        
0000dda5  PIN_getInputValue                                           
0000ddb9  PIN_getOutputValue                                          
0000ddcd  RF_Params_init                                              
0000dde1  Register_addService                                         
0000de09  SensorMpu9250_powerIsOn                                     
0000de1d  SensorMpu9250_registerCallback                              
0000de31  SensorTagBatt_processSensorEvent                            
0000de45  SensorTagKeys_reset                                         
0000de59  SensorUtil_convertToLe                                      
0000de95  _nop                                                        
0000de97  _register_unlock                                            
0000de9d  _register_lock                                              
0000dea9  strlen                                                      
0000ded1  ti_sysbios_family_arm_m3_Hwi_Object__get__S                 
0000dee5  ti_sysbios_family_arm_m3_Hwi_switchFromBootStack__E         
0000dee5  ti_sysbios_hal_Hwi_HwiProxy_switchFromBootStack__E          
0000def9  ti_sysbios_knl_Clock_doTick__I                              
0000df0d  ti_sysbios_knl_Swi_Object__get__S                           
0000df21  ExtFlash_test                                               
0000df33  GATTServApp_FindAttr                                        
0000df45  RF_getCmdOp                                                 
0000df57  ti_sysbios_hal_Hwi_Module_startup__E                        
0000df69  xdc_runtime_Startup_exec__I                                 
0000df7b  xdc_runtime_System_abortSpin__E                             
0000df7d  CcService_getParameter                                      
0000df9d  GAPRole_RegisterAppCBs                                      
0000dfad  GAP_EndDiscoverable                                         
0000dfbd  GATTServApp_ReadCharCfg                                     
0000dfcd  ICallPlatform_pwrGetXOSCStartupTime                         
0000dffd  NOROM_RFCRfTrimSet                                          
0000e00d  NOROM_SetupGetTrimForXoscHfFastStart                        
0000e01d  NOROM_SetupGetTrimForXoscHfIbiastherm                       
0000e02d  OADTarget_getCrc                                            
0000e03d  OADTarget_setCrc                                            
0000e04d  OADTarget_systemReset                                       
0000e05d  RegisterAssertCback                                         
0000e06d  SensorTagRegister_init                                      
0000e07d  Util_isActive                                               
0000e09d  ti_sysbios_BIOS_exit__E                                     
0000e0ad  ti_sysbios_BIOS_getCpuFreq__E                               
0000e0bd  ti_sysbios_BIOS_setThreadType__E                            
0000e0cd  ti_sysbios_BIOS_start__E                                    
0000e0dd  ti_sysbios_family_arm_m3_Hwi_post__E                        
0000e0dd  ti_sysbios_hal_Hwi_HwiProxy_post__E                         
0000e0ea  __checksum_value_CommonROM                                  
0000e0ed  ti_sysbios_family_arm_m3_TaskSupport_glue                   
0000e0fd  ti_sysbios_family_arm_m3_TaskSupport_swap__E                
0000e0fd  ti_sysbios_knl_Task_SupportProxy_swap__E                    
0000e105  ti_sysbios_knl_Task_swapReturn                              
0000e10d  ti_sysbios_hal_Hwi_HwiProxy_Object__create__S               
0000e11d  ti_sysbios_knl_Semaphore_Instance_finalize__E               
0000e12d  ti_sysbios_knl_Swi_disable__E                               
0000e13d  ti_sysbios_knl_Swi_enabled__E                               
0000e14d  ti_sysbios_knl_Task_Object__get__S                          
0000e15d  ti_sysbios_knl_Task_disable__E                              
0000e16d  xdc_runtime_Gate_leaveSystem__E                             
0000e17d  xdc_runtime_SysCallback_abort__E                            
0000e17d  xdc_runtime_System_SupportProxy_abort__E                    
0000e18d  xdc_runtime_SysCallback_exit__E                             
0000e18d  xdc_runtime_System_SupportProxy_exit__E                     
0000e19d  GATT_Indication                                             
0000e1ab  ICallPlatform_pwrGetTransitionState                         
0000e1b9  ICallPlatform_pwrIsStableXOSCHF                             
0000e1ff  NOROM_SetupSignExtendVddrTrimValue                          
0000e20d  NOROM_VIMSModeGet                                           
0000e21b  OADTarget_imageAddress                                      
0000e229  SPICC26XXDMA_init                                           
0000e237  SensorI2C_readReg                                           
0000e245  Util_constructQueue                                         
0000e253  __TI_decompress_none                                        
0000e299  ti_sysbios_knl_Queue_empty__E                               
0000e2a7  ti_sysbios_knl_Queue_remove__E                              
0000e2b5  xdc_runtime_HeapMin_Instance_init__E                        
0000e2c3  xdc_runtime_System_exitSpin__E                              
0000e2d1  GAP_MakeDiscoverable                                        
0000e2dd  GAP_TerminateAuth                                           
0000e2e9  GAP_UpdateLinkParamReq                                      
0000e2f5  GAP_UpdateLinkParamReqReply                                 
0000e301  GGS_SetParameter                                            
0000e349  NOROM_CPUcpsid                                              
0000e355  NOROM_CPUcpsie                                              
0000e361  Power_getConstraintMask                                     
0000e36d  Power_getDependencyCount                                    
0000e379  Power_getTransitionState                                    
0000e385  SensorI2C_deselect                                          
0000e391  SensorTagConnectionControl_init                             
0000e3b5  SensorTag_testResult                                        
0000e3d9  ti_sysbios_BIOS_getThreadType__E                            
0000e3e5  ti_sysbios_family_arm_m3_Hwi_Params__init__S                
0000e3e5  ti_sysbios_hal_Hwi_HwiProxy_Params__init__S                 
0000e3f1  ti_sysbios_family_arm_m3_Hwi_disableFxn__E                  
0000e3f1  ti_sysbios_hal_Hwi_HwiProxy_disable__E                      
0000e3fd  ti_sysbios_family_arm_m3_Hwi_enableFxn__E                   
0000e3fd  ti_sysbios_hal_Hwi_HwiProxy_enable__E                       
0000e409  ti_sysbios_family_arm_m3_TaskSupport_getStackAlignment__E   
0000e409  ti_sysbios_knl_Task_SupportProxy_getStackAlignment__E       
0000e415  ti_sysbios_gates_GateHwi_enter__E                           
0000e421  ti_sysbios_hal_Hwi_Params__init__S                          
0000e42d  ti_sysbios_knl_Clock_Params__init__S                        
0000e439  ti_sysbios_knl_Queue_Object__get__S                         
0000e445  ti_sysbios_knl_Queue_dequeue__E                             
0000e451  ti_sysbios_knl_Queue_enqueue__E                             
0000e45d  ti_sysbios_knl_Semaphore_Params__init__S                    
0000e469  ti_sysbios_knl_Swi_Params__init__S                          
0000e475  ti_sysbios_knl_Swi_getTrigger__E                            
0000e481  ti_sysbios_knl_Task_Params__init__S                         
0000e48d  ti_sysbios_knl_Task_self__E                                 
0000e499  xdc_runtime_Gate_enterSystem__E                             
0000e4a5  xdc_runtime_HeapMin_getStats__E                             
0000e4b1  xdc_runtime_Memory_calloc__E                                
0000e4bd  xdc_runtime_Memory_getMaxDefaultTypeAlign__E                
0000e4c9  xdc_runtime_Startup_rtsDone__E                              
0000e4d5  I2CCC26XX_init                                              
0000e4df  I2C_close                                                   
0000e4e9  I2C_transfer                                                
0000e4f3  ICallPlatform_pwrSwitchXOSCHF                               
0000e507  List_empty                                                  
0000e511  OADTarget_readFlash                                         
0000e51b  SPI_close                                                   
0000e525  SPI_transfer                                                
0000e52f  SensorTag_charValueChangeCB                                 
0000e543  UDMACC26XX_hwiIntFxn                                        
0000e54d  xdc_runtime_Memory_HeapProxy_alloc__E                       
0000e55f  RF_flushCmd                                                 
0000e5b7  ti_sysbios_family_arm_m3_Hwi_doSwiRestore__I                
0000e5bf  ti_sysbios_family_arm_m3_Hwi_startup__E                     
0000e5bf  ti_sysbios_hal_Hwi_HwiProxy_startup__E                      
0000e5c7  ti_sysbios_knl_Idle_loop__E                                 
0000e5cf  GGS_AddService                                              
0000e5d5  I2CCC26XX_control                                           
0000e5db  ICall_mallocImpl                                            
0000e5e1  NOROM_CPUdelay                                              
0000e5e7  OADTarget_eraseFlash                                        
0000e5ed  PIN_registerIntCb                                           
0000e5f3  SensorOpt3001_init                                          
0000e5f9  SensorTmp007_init                                           
0000e605  __TI_decompress_rle24                                       
0000e665  ti_sysbios_family_arm_m3_Hwi_doTaskRestore__I               
0000e66b  HwiP_restore                                                
0000e66b  ti_sysbios_family_arm_m3_Hwi_restoreFxn__E                  
0000e66b  ti_sysbios_hal_Hwi_HwiProxy_restore__E                      
0000e671  ti_sysbios_family_arm_m3_Hwi_setFunc__E                     
0000e677  ti_sysbios_gates_GateHwi_leave__E                           
0000e67d  ti_sysbios_knl_Queue_Instance_init__E                       
0000e683  ti_sysbios_knl_Queue_elemClear__E                           
0000e689  ti_sysbios_knl_Swi_startup__E                               
0000e68f  ti_sysbios_knl_Task_enable__E                               
0000e695  xdc_runtime_System_Module_startup__E                        
0000e69b  GATTServApp_AddService                                      
0000e69f  HwiP_disable                                                
0000e6a7  List_head                                                   
0000e6ab  List_next                                                   
0000e6b3  Util_startClock                                             
0000e6b7  Util_stopClock                                              
0000e6c3  ti_sysbios_BIOS_RtsGateProxy_enter__E                       
0000e6c7  ti_sysbios_BIOS_RtsGateProxy_leave__E                       
0000e6cb  ti_sysbios_family_arm_cc26xx_Timer_getCount64__E            
0000e6cf  ti_sysbios_family_arm_cc26xx_Timer_setPeriod__E             
0000e6d3  ti_sysbios_family_arm_m3_Hwi_destruct                       
0000e6d7  ti_sysbios_family_arm_m3_TaskSupport_Module__startupDone__S 
0000e6d7  ti_sysbios_knl_Task_SupportProxy_Module__startupDone__S     
0000e6db  ti_sysbios_gates_GateHwi_query__E                           
0000e6db  xdc_runtime_Main_Module_GateProxy_query__E                  
0000e6db  xdc_runtime_System_Module_GateProxy_query__E                
0000e6df  ti_sysbios_BIOS_RtsGateProxy_query__E                       
0000e6df  ti_sysbios_gates_GateMutex_query__E                         
0000e6e3  ti_sysbios_knl_Clock_TimerProxy_getCurrentTick__E           
0000e6e7  ti_sysbios_knl_Clock_TimerProxy_getMaxTicks__E              
0000e6eb  ti_sysbios_knl_Clock_TimerProxy_setNextTick__E              
0000e6ef  ti_sysbios_knl_Clock_isActive__E                            
0000e6f3  ti_sysbios_knl_Clock_removeI__E                             
0000e6f7  ti_sysbios_knl_Clock_setPeriod__E                           
0000e6fb  ti_sysbios_knl_Clock_setTimeout__E                          
0000e6ff  ti_sysbios_knl_Queue_destruct                               
0000e703  ti_sysbios_knl_Queue_head__E                                
0000e707  ti_sysbios_knl_Queue_insert__E                              
0000e70b  ti_sysbios_knl_Queue_next__E                                
0000e70f  ti_sysbios_knl_Semaphore_destruct                           
0000e713  ti_sysbios_knl_Swi_destruct                                 
0000e717  ti_sysbios_knl_Swi_postInit__I                              
0000e71b  ti_sysbios_knl_Task_startup__E                              
0000e71f  xdc_runtime_HeapMin_isBlocking__E                           
0000e723  xdc_runtime_System_Module_GateProxy_enter__E                
0000e727  xdc_runtime_System_Module_GateProxy_leave__E                
0000e7f8  BoardGpioInitTable                                          
0000e860  oadCBs                                                      
0000e8ac  resourceDB                                                  
0000e8f8  rfDriverTable                                               
0000e980  ti_sysbios_knl_Task_Object__PARAMS__C                       
0000e9f4  spiCC26XXDMAHWAttrs                                         
0000ea2c  ti_sysbios_family_arm_m3_Hwi_Object__PARAMS__C              
0000ea5c  primaryServiceUUID                                          
0000ea5e  characterUUID                                               
0000ea60  clientCharCfgUUID                                           
0000ea62  charFormatUUID                                              
0000ea64  reportRefUUID                                               
0000ea66  gapServiceUUID                                              
0000ea68  gattServiceUUID                                             
0000ea6a  secondaryServiceUUID                                        
0000ea6c  includeUUID                                                 
0000ea6e  charExtPropsUUID                                            
0000ea70  charUserDescUUID                                            
0000ea72  servCharCfgUUID                                             
0000ea74  charAggFormatUUID                                           
0000ea76  deviceNameUUID                                              
0000ea78  appearanceUUID                                              
0000ea7a  periPrivacyFlagUUID                                         
0000ea7c  reconnectAddrUUID                                           
0000ea7e  periConnParamUUID                                           
0000ea80  serviceChangedUUID                                          
0000ea82  validRangeUUID                                              
0000ea84  extReportRefUUID                                            
0000ea88  ti_sysbios_hal_Hwi_Object__PARAMS__C                        
0000eab4  ti_sysbios_knl_Swi_Object__PARAMS__C                        
0000eadc  xdc_runtime_HeapMin_Module__FXNS__C                         
0000eb04  txPowerTable                                                
0000eb2b  xdc_runtime_Error_policy__C                                 
0000eb2c  SPI_config                                                  
0000eb50  ti_sysbios_gates_GateHwi_Module__FXNS__C                    
0000eb74  ti_sysbios_gates_GateMutex_Module__FXNS__C                  
0000eb98  ti_sysbios_knl_Clock_Object__PARAMS__C                      
0000ebbc  ti_sysbios_knl_Semaphore_Object__PARAMS__C                  
0000ebe0  SPI_defaultParams                                           
0000ec00  ti_sysbios_family_arm_m3_Hwi_Object__DESC__C                
0000ec20  ti_sysbios_gates_GateHwi_Object__DESC__C                    
0000ec40  ti_sysbios_gates_GateMutex_Object__DESC__C                  
0000ec60  ti_sysbios_hal_Hwi_Object__DESC__C                          
0000ec80  ti_sysbios_knl_Clock_Object__DESC__C                        
0000eca0  ti_sysbios_knl_Queue_Object__DESC__C                        
0000ecc0  ti_sysbios_knl_Semaphore_Object__DESC__C                    
0000ece0  ti_sysbios_knl_Swi_Object__DESC__C                          
0000ed00  ti_sysbios_knl_Task_Object__DESC__C                         
0000ed20  xdc_runtime_HeapMin_Object__DESC__C                         
0000ed40  xdc_runtime_HeapMin_Object__PARAMS__C                       
0000ed60  SPICC26XXDMA_fxnTable                                       
0000ed7c  xdc_runtime_Startup_sfxnTab__A                              
0000ed98  I2CCC26XX_fxnTable                                          
0000edb0  I2C_config                                                  
0000edc8  i2cCC26xxHWAttrs                                            
0000ede0  ti_sysbios_gates_GateHwi_Object__PARAMS__C                  
0000edf8  ti_sysbios_gates_GateMutex_Object__PARAMS__C                
0000ee10  ti_sysbios_knl_Queue_Object__PARAMS__C                      
0000ee3c  ccServiceServUUID                                           
0000ee4c  ccServicechar1UUID                                          
0000ee5c  ccServicechar2UUID                                          
0000ee6c  ccServicechar3UUID                                          
0000ee7c  ioConfUUID                                                  
0000ee8c  ioDataUUID                                                  
0000ee9c  ioServUUID                                                  
0000f03c  I2C_defaultParams                                           
0000f04c  PowerCC26XX_config                                          
0000f05c  TRNGCC26XX_config                                           
0000f06c  UDMACC26XX_config                                           
0000f07c  xdc_runtime_Startup_sfxnRts__A                              
0000f098  battCBs                                                     
0000f0a4  ccServiceCBs                                                
0000f0b0  devInfoCBs                                                  
0000f0bc  ioCBs                                                       
0000f110  skCBs                                                       
0000f11c  trngDriverTable                                             
0000f1b8  ti_sysbios_knl_Idle_funcList__C                             
0000f1c0  udmaHWAttrs                                                 
0000f1c8  xdc_runtime_Startup_firstFxns__A                            
0000f1d0  xdc_runtime_Startup_firstFxns__C                            
0000f1d8  xdc_runtime_Startup_lastFxns__C                             
0000f1e0  txPwrTbl                                                    
0000f1e6  battLevelUUID                                               
0000f1e8  TRNGCC26XXHWAttrs                                           
0000f1f0  ti_sysbios_family_arm_cc26xx_Timer_startupNeeded__C         
0000f1f4  ti_sysbios_family_arm_m3_Hwi_E_alreadyDefined__C            
0000f1f8  ti_sysbios_family_arm_m3_Hwi_NUM_INTERRUPTS__C              
0000f1fc  ti_sysbios_family_arm_m3_Hwi_Object__count__C               
0000f200  ti_sysbios_family_arm_m3_Hwi_ccr__C                         
0000f204  ti_sysbios_family_arm_m3_Hwi_excHandlerFunc__C              
0000f208  ti_sysbios_family_arm_m3_Hwi_nullIsrFunc__C                 
0000f20c  ti_sysbios_family_arm_m3_Hwi_priGroup__C                    
0000f210  ti_sysbios_family_arm_m3_TaskSupport_stackAlignment__C      
0000f214  ti_sysbios_gates_GateMutex_Instance_State_sem__O            
0000f218  ti_sysbios_knl_Clock_Module_State_clockQ__O                 
0000f21c  ti_sysbios_knl_Clock_tickPeriod__C                          
0000f220  ti_sysbios_knl_Clock_triggerClock__C                        
0000f224  ti_sysbios_knl_Idle_funcList__A                             
0000f228  ti_sysbios_knl_Semaphore_Instance_State_pendQ__O            
0000f22c  ti_sysbios_knl_Swi_Object__count__C                         
0000f230  ti_sysbios_knl_Task_Module_State_inactiveQ__O               
0000f234  ti_sysbios_knl_Task_Object__count__C                        
0000f238  ti_sysbios_knl_Task_allBlockedFunc__C                       
0000f23c  ti_sysbios_knl_Task_defaultStackHeap__C                     
0000f240  ti_sysbios_knl_Task_defaultStackSize__C                     
0000f244  ti_sysbios_knl_Task_numConstructedTasks__C                  
0000f248  xdc_runtime_Error_E_memory__C                               
0000f24c  xdc_runtime_Error_policyFxn__C                              
0000f250  xdc_runtime_HeapMin_E_freeError__C                          
0000f254  xdc_runtime_IGateProvider_Interface__BASE__C                
0000f258  xdc_runtime_IHeap_Interface__BASE__C                        
0000f25c  xdc_runtime_IModule_Interface__BASE__C                      
0000f260  xdc_runtime_Memory_defaultHeapInstance__C                   
0000f264  xdc_runtime_Startup_execImpl__C                             
0000f268  xdc_runtime_Startup_maxPasses__C                            
0000f26c  xdc_runtime_Startup_sfxnRts__C                              
0000f270  xdc_runtime_Startup_sfxnTab__C                              
0000f274  xdc_runtime_SysCallback_abortFxn__C                         
0000f278  xdc_runtime_SysCallback_exitFxn__C                          
0000f27c  xdc_runtime_System_Module__gateObj__C                       
0000f280  xdc_runtime_System_abortFxn__C                              
0000f284  xdc_runtime_System_exitFxn__C                               
0000f288  xdc_runtime_System_maxAtexitHandlers__C                     
0000f28c  battServUUID                                                
0000f28e  devInfo11073CertUUID                                        
0000f290  devInfoFirmwareRevUUID                                      
0000f292  devInfoHardwareRevUUID                                      
0000f294  devInfoMfrNameUUID                                          
0000f296  devInfoModelNumberUUID                                      
0000f298  devInfoPnpIdUUID                                            
0000f29a  devInfoSerialNumberUUID                                     
0000f29c  devInfoServUUID                                             
0000f29e  devInfoSoftwareRevUUID                                      
0000f2a0  devInfoSystemIdUUID                                         
0000f2a2  keyPressedUUID                                              
0000f2a4  skServUUID                                                  
0000f2a8  ti_sysbios_family_arm_m3_Hwi_Module__id__C                  
0000f2aa  xdc_runtime_HeapMin_Module__id__C                           
0000f2ac  xdc_runtime_HeapMin_freeError__C                            
0000f2ae  xdc_runtime_Memory_Module__id__C                            
0000f2b0  __TI_static_base__                                          
0000fe4c  __TI_Handler_Table_Base                                     
0000fe54  __TI_CINIT_Base                                             
0000fe54  __TI_Handler_Table_Limit                                    
0000fe84  __TI_CINIT_Limit                                            
10014c00  A1_rw                                                       
10014c00  __checksum_begin_CommonROM                                  
10014c01  COMMON_ROM_BASE_ADDR                                        
10014c04  P1_ro                                                       
10014c05  SCALARMUL_init                                              
10014ced  SCALARMUL_core                                              
10015019  SCALARMUL_final                                             
100150e5  SCALARMUL                                                   
10015101  SAVEPOINT                                                   
10015141  GETBIT                                                      
10015155  GETDIGIT                                                    
100151a5  GETDIGITL2R                                                 
10015215  SelectReg                                                   
10015229  ATOMICPATTERN                                               
100154f5  JACADD                                                      
1001568d  INVERT                                                      
10015821  SQUAREMULTIPLYWORD                                          
1001588c  LUTOPCODE                                                   
10015894  LUTOPSIGN                                                   
100158ac  LUTC                                                        
100158c4  LUTSE                                                       
100158dc  LUTINCI                                                     
100158f4  LUTJ                                                        
1001596c  LUTSTATE                                                    
100159a9  IMPORTLENGTH                                                
100159ad  IMPORTMODULUS                                               
100159d1  IMPORTOPERAND                                               
10015a11  EXPORTOPERAND                                               
10015a35  IMPORTDATA                                                  
10015a51  SETOPERAND                                                  
10015a6d  COPY                                                        
10015a85  ZERO                                                        
10015a91  SETWORD                                                     
10015a9d  mSET                                                        
10015bcd  zSET                                                        
10015bd5  mINVK                                                       
10015d19  zADD                                                        
10015d5d  zSUB                                                        
10015de9  zMACC32                                                     
10015e69  zSUB32                                                      
10015eb5  zADD32                                                      
10015f0d  zMULT32                                                     
10015f81  mMULT                                                       
10016551  mADD                                                        
1001664d  mSUB                                                        
10016749  mOUT                                                        
10016975  ssp_KeyInit_Sw                                              
10016979  sspAesEncrypt_Sw                                            
10016985  sspKeyExpansion_Sw                                          
10016a99  sspAesEncryptKeyExp_Sw                                      
10016af5  sspAesEncryptBasic_Sw                                       
10016b79  RoundKey_Sw                                                 
10016c29  AddRoundKeySubBytes_Sw                                      
10016c45  ShiftRows_Sw                                                
10016c79  MixColumns_Sw                                               
10016d05  FFMult_Sw                                                   
10016d29  sspAesDecrypt_Sw                                            
10016da1  InvAddRoundKey_Sw                                           
10016dc9  InvRoundKey_Sw                                              
10016e8d  InvSubBytes_Sw                                              
10016ea1  InvShiftRows_Sw                                             
10016ed5  InvMixColumns_Sw                                            
10016f58  FFMult2                                                     
10017058  FFMult3                                                     
10017158  RCon                                                        
10017164  Sbox                                                        
10017264  InvSbox                                                     
10017365  SSP_CCM_Auth_Sw                                             
100174fd  SSP_CCM_Encrypt_Sw                                          
100175ed  SSP_CTR_Encrypt_Sw                                          
1001767d  SSP_CCM_Decrypt_Sw                                          
10017771  SSP_CTR_Decrypt_Sw                                          
10017839  SSP_CCM_InvAuth_Sw                                          
10017895  SSP_CCM_Auth_Encrypt_Sw                                     
100178f5  SSP_CCM_InvAuth_Decrypt_Sw                                  
10017959  ECC_allocWorkzone                                           
10017961  ECC_setWin                                                  
10017969  ECDSA_sign                                                  
10017b01  ECDSA_verif                                                 
10017dbd  eccRom_genKeys                                              
10017ded  eccRom_genSharedSecret                                      
10017e39  SHA256_updateW                                              
10017e75  SHA256_round                                                
10017ef1  SHA256_nextState                                            
10017f49  SHA256_saveBuffer                                           
10017ffd  SHA256_init                                                 
10018019  SHA256_process                                              
10018089  SHA256_final                                                
10018129  SHA256_full                                                 
100182ad  RFHAL_InitRfHal                                             
10018315  RFHAL_AllocRatChan                                          
1001833d  RFHAL_FreeRatChan                                           
10018369  RFHAL_MapRatChansToInt                                      
10018391  RFHAL_RegisterRatChanCallback                               
100183b9  RFHAL_InitDataQueue                                         
100183c5  RFHAL_QueueRFDataEntries                                    
10018415  RFHAL_AddTxDataEntry                                        
10018485  RFHAL_FreeNextTxDataEntry                                   
100184a9  RFHAL_AllocDataEntryQueue                                   
100184c5  RFHAL_FreeDataEntryQueue                                    
100184cd  RFHAL_GetNextDataEntry                                      
100184d1  RFHAL_GetTempDataEntry                                      
100184d5  RFHAL_NextDataEntryDone                                     
100184f9  RFHAL_AllocDataEntry                                        
10018549  RFHAL_FreeDataEntry                                         
10018551  RFHAL_BuildRingBuffer                                       
100185e1  RFHAL_BuildDataEntryRingBuffer                              
10018669  RFHAL_BuildLinkedBuffer                                     
10018755  MB_Init                                                     
10018799  MB_EnableInts                                               
100187f5  MB_DisableInts                                              
10018825  MB_ClearInts                                                
10018835  MB_EnableHWInts                                             
10018865  MB_SendCommand                                              
100188a5  MB_SendCommandSynch                                         
10018935  MB_ReadMailboxStatus                                        
1001893d  MB_RegisterIsrCback                                         
10018945  MB_FwDebugDump                                              
10018949  mbCmdAckIsr                                                 
1001895d  mbCpe0Isr                                                   
10018985  mbCpe1Isr                                                   
100189e5  mbHwIsr                                                     
10018a19  AesCcm_authEncrypt_Sw                                       
10018a35  AesCcm_decryptAuth_Sw                                       
10018a99  Aes_encrypt_Sw                                              
10018ac5  Aes_decrypt_Sw                                              
10018b09  AesCcm_getNumBlocks_Sw                                      
10018b0c  NIST_Curve_P256_p                                           
10018b30  NIST_Curve_P256_r                                           
10018b54  NIST_Curve_P256_a                                           
10018b78  NIST_Curve_P256_b                                           
10018b9c  NIST_Curve_P256_Gx                                          
10018bc0  NIST_Curve_P256_Gy                                          
10018ced  __exit                                                      
10018d6c  Fill1                                                       
10019ffc  A3_rw                                                       
10019ffd  __checksum_end_CommonROM                                    
10019ffe  A2_rw                                                       
10019ffe  P1_ro_2                                                     
10019ffe  __checksum_CommonROM                                        
20000000  ti_sysbios_family_arm_m3_Hwi_ramVectors                     
20000520  gapProfileState                                             
20000521  selfEntityMain                                              
20000528  sem                                                         
2000052c  hGpioPin                                                    
20000548  pinGpioState                                                
200008d8  linkDBNumConns                                              
200009ec  gapRoleTask                                                 
20000a3c  gapRoleTaskStack                                            
20001934  PowerCC26XX_module                                          
20001a44  ICall_dispatcher                                            
20001a4c  ICall_enterCriticalSection                                  
20001a50  ICall_leaveCriticalSection                                  
20001a68  HEAPMGR_SIZE                                                
200020f4  rfRegTbl                                                    
20002190  ti_sysbios_knl_Task_Object__table__V                        
200021e0  ti_sysbios_family_arm_cc26xx_Timer_Object__table__V         
20002228  ti_sysbios_knl_Task_Module__state__V                        
200022a0  ti_sysbios_family_arm_m3_Hwi_Module__state__V               
20002304  ti_sysbios_knl_Swi_Module_State_0_readyQ__A                 
20002334  ti_sysbios_knl_Swi_Object__table__V                         
20002364  ti_sysbios_knl_Task_Module_State_0_readyQ__A                
20002394  user0Cfg                                                    
2000241c  ti_sysbios_knl_Clock_Module__state__V                       
20002448  ti_sysbios_BIOS_Module__state__V                            
2000246c  ti_sysbios_knl_Clock_Object__table__V                       
2000248c  ti_sysbios_gates_GateMutex_Object__table__V                 
200024a8  ti_sysbios_knl_Swi_Module__state__V                         
200024dc  ti_sysbios_family_arm_m3_Hwi_Object__table__V               
20002518  xdc_runtime_HeapMin_Object__table__V                        
20002528  __TI_cleanup_ptr                                            
2000252c  __TI_dtors_ptr                                              
20002530  __TI_enable_exit_profile_output                             
20002534  lastAppOpcodeSent                                           
20002538  pfnBMAlloc                                                  
2000253c  pfnBMFree                                                   
2000255c  _lock                                                       
20002560  _unlock                                                     
2000256c  ti_sysbios_family_arm_cc26xx_Timer_Module__state__V         
20002574  ti_sysbios_family_arm_m3_Hwi_Module__root__V                
2000257c  ti_sysbios_gates_GateHwi_Module__root__V                    
20002584  ti_sysbios_gates_GateMutex_Module__root__V                  
2000258c  ti_sysbios_hal_Hwi_Module__root__V                          
20002594  ti_sysbios_knl_Clock_Module__root__V                        
2000259c  ti_sysbios_knl_Queue_Module__root__V                        
200025a4  ti_sysbios_knl_Semaphore_Module__root__V                    
200025ac  ti_sysbios_knl_Swi_Module__root__V                          
200025b4  ti_sysbios_knl_Task_Module__root__V                         
200025bc  xdc_runtime_HeapMin_Module__root__V                         
200025c4  xdc_runtime_Startup_Module__state__V                        
200025cc  xdc_runtime_System_Module__state__V                         
200025d8  appAssertCback                                              
200025dc  main_func_sp                                                
200025e8  ti_sysbios_family_arm_m3_Hwi_Module_State_0_excContext__A   
200025ec  ti_sysbios_family_arm_m3_Hwi_Module_State_0_excStack__A     
200025f0  ti_sysbios_gates_GateHwi_Object__table__V                   
200025f4  ti_sysbios_knl_Task_Module_State_0_idleTask__A              
200025f8  xdc_runtime_Memory_Module__state__V                         
20002614  ti_sysbios_family_arm_m3_Hwi_Module_State_0_excActive__A    
20002618  xdc_runtime_HeapMin_Instance_State_0_buf__A                 
20002c9c  trngCC26XXObjects                                           
20002ca0  ti_sysbios_knl_Task_Instance_State_0_stack__A               
20002ea0  spiCC26XXDMAObjects                                         
20003058  PIN_NumPins                                                 
200030ec  PIN_HandleTable                                             
20003278  i2cCC26xxObjects                                            
20003358  ti_sysbios_family_arm_m3_Hwi_dispatchTable                  
20003498  udmaObjects                                                 
20003509  driverlib_release_0_46593                                   
2000350a  heapStart                                                   
20004228  __stack                                                     
20004228  heapEnd                                                     
20004428  __STACK_END                                                 
20004428  __STACK_TOP                                                 
20004f2c  A4_rw                                                       
20004f2c  COMMON_RAM_BASE_ADDR                                        
20004f40  P2_rw                                                       
20004f40  P2_s0                                                       
20004f40  eccRom_windowSize                                           
20004f44  eccRom_workzone                                             
20004f48  eccRom_param_p                                              
20004f4c  eccRom_param_r                                              
20004f50  eccRom_param_a                                              
20004f54  inScalar                                                    
20004f58  inPointX                                                    
20004f5c  inPointY                                                    
20004f60  outPointX                                                   
20004f64  outPointY                                                   
20004f68  SCAL                                                        
20004f6c  EXPX                                                        
20004f70  EXPY                                                        
20004f74  EXPZ                                                        
20004f78  EXPW                                                        
20004f7c  ACCX                                                        
20004f80  ACCY                                                        
20004f84  ACCZ                                                        
20004f88  TMP1                                                        
20004f8c  TMP2                                                        
20004f90  TMP3                                                        
20004f94  TMP4                                                        
20004f98  TMP5                                                        
20004f9c  TMP6                                                        
20004fa0  eccRom_param_Gx                                             
20004fa4  eccRom_param_Gy                                             
20004fa8  eccRom_param_b                                              
20004fac  P2_zi                                                       
20004fac  ratChanInfo                                                 
20004fcc  fwInfoCmd                                                   
20004fd8  MSBMOD                                                      
20004fdc  aux64                                                       
20004fe4  MOD                                                         
20004fe8  LEN                                                         
20004ffc  pSspAesEncrypt_Sw                                           
e000e000  ti_sysbios_family_arm_m3_Hwi_nvic                           
ffffffff  __TI_pprof_out_hndl                                         
ffffffff  __TI_prof_data_size                                         
ffffffff  __TI_prof_data_start                                        
ffffffff  __binit__                                                   
ffffffff  __c_args__                                                  
ffffffff  binit                                                       
UNDEFED   SHT$$INIT_ARRAY$$Base                                       
UNDEFED   SHT$$INIT_ARRAY$$Limit                                      

[1068 symbols]
